0000000100000544 <_func0>:
100000544: a9bd57f6    	stp	x22, x21, [sp, #-0x30]!
100000548: a9014ff4    	stp	x20, x19, [sp, #0x10]
10000054c: a9027bfd    	stp	x29, x30, [sp, #0x20]
100000550: 910083fd    	add	x29, sp, #0x20
100000554: aa0003f4    	mov	x20, x0
100000558: 940000ab    	bl	0x100000804 <_strncpy+0x100000804>
10000055c: aa0003f3    	mov	x19, x0
100000560: 52800028    	mov	w8, #0x1                ; =1
100000564: 331f7a68    	bfi	w8, w19, #1, #31
100000568: 93407d00    	sxtw	x0, w8
10000056c: 940000a0    	bl	0x1000007ec <_strncpy+0x1000007ec>
100000570: b4000c60    	cbz	x0, 0x1000006fc <_func0+0x1b8>
100000574: 71000676    	subs	w22, w19, #0x1
100000578: 5400046b    	b.lt	0x100000604 <_func0+0xc0>
10000057c: 92407a75    	and	x21, x19, #0x7fffffff
100000580: f10006a8    	subs	x8, x21, #0x1
100000584: 540002c0    	b.eq	0x1000005dc <_func0+0x98>
100000588: d2800009    	mov	x9, #0x0                ; =0
10000058c: 8b08028a    	add	x10, x20, x8
100000590: aa1403eb    	mov	x11, x20
100000594: 4b09026c    	sub	w12, w19, w9
100000598: 0b4c7d8c    	add	w12, w12, w12, lsr #31
10000059c: 13017d8c    	asr	w12, w12, #1
1000005a0: aa0a03ed    	mov	x13, x10
1000005a4: aa0b03ee    	mov	x14, x11
1000005a8: 384015cf    	ldrb	w15, [x14], #0x1
1000005ac: 385ff5b0    	ldrb	w16, [x13], #-0x1
1000005b0: 6b1001ff    	cmp	w15, w16
1000005b4: 54000081    	b.ne	0x1000005c4 <_func0+0x80>
1000005b8: f100058c    	subs	x12, x12, #0x1
1000005bc: 54ffff61    	b.ne	0x1000005a8 <_func0+0x64>
1000005c0: 14000006    	b	0x1000005d8 <_func0+0x94>
1000005c4: 91000529    	add	x9, x9, #0x1
1000005c8: 9100056b    	add	x11, x11, #0x1
1000005cc: eb08013f    	cmp	x9, x8
1000005d0: 54fffe21    	b.ne	0x100000594 <_func0+0x50>
1000005d4: 14000002    	b	0x1000005dc <_func0+0x98>
1000005d8: aa0903f6    	mov	x22, x9
1000005dc: aa1403e1    	mov	x1, x20
1000005e0: aa1503e2    	mov	x2, x21
1000005e4: 9400008b    	bl	0x100000810 <_strncpy+0x100000810>
1000005e8: 34000876    	cbz	w22, 0x1000006f4 <_func0+0x1b0>
1000005ec: 93407ec9    	sxtw	x9, w22
1000005f0: 2a1603e8    	mov	w8, w22
1000005f4: 710022df    	cmp	w22, #0x8
1000005f8: 54000122    	b.hs	0x10000061c <_func0+0xd8>
1000005fc: d280000a    	mov	x10, #0x0               ; =0
100000600: 14000033    	b	0x1000006cc <_func0+0x188>
100000604: 531f7a75    	lsl	w21, w19, #1
100000608: 93407e62    	sxtw	x2, w19
10000060c: aa1403e1    	mov	x1, x20
100000610: 94000080    	bl	0x100000810 <_strncpy+0x100000810>
100000614: 93407ea8    	sxtw	x8, w21
100000618: 14000038    	b	0x1000006f8 <_func0+0x1b4>
10000061c: 710102df    	cmp	w22, #0x40
100000620: 54000062    	b.hs	0x10000062c <_func0+0xe8>
100000624: d280000a    	mov	x10, #0x0               ; =0
100000628: 1400001a    	b	0x100000690 <_func0+0x14c>
10000062c: 927a650a    	and	x10, x8, #0xffffffc0
100000630: 8b0002ab    	add	x11, x21, x0
100000634: 9100816b    	add	x11, x11, #0x20
100000638: 8b14012c    	add	x12, x9, x20
10000063c: d100818c    	sub	x12, x12, #0x20
100000640: aa0a03ed    	mov	x13, x10
100000644: ad400181    	ldp	q1, q0, [x12]
100000648: 4e200800    	rev64.16b	v0, v0
10000064c: 6e004000    	ext.16b	v0, v0, v0, #0x8
100000650: 4e200821    	rev64.16b	v1, v1
100000654: 6e014021    	ext.16b	v1, v1, v1, #0x8
100000658: ad7f0983    	ldp	q3, q2, [x12, #-0x20]
10000065c: 4e200842    	rev64.16b	v2, v2
100000660: 6e024042    	ext.16b	v2, v2, v2, #0x8
100000664: 4e200863    	rev64.16b	v3, v3
100000668: 6e034063    	ext.16b	v3, v3, v3, #0x8
10000066c: ad3f0560    	stp	q0, q1, [x11, #-0x20]
100000670: ac820d62    	stp	q2, q3, [x11], #0x40
100000674: d101018c    	sub	x12, x12, #0x40
100000678: d10101ad    	sub	x13, x13, #0x40
10000067c: b5fffe4d    	cbnz	x13, 0x100000644 <_func0+0x100>
100000680: eb08015f    	cmp	x10, x8
100000684: 54000380    	b.eq	0x1000006f4 <_func0+0x1b0>
100000688: f27d091f    	tst	x8, #0x38
10000068c: 54000200    	b.eq	0x1000006cc <_func0+0x188>
100000690: aa0a03ed    	mov	x13, x10
100000694: 927d710a    	and	x10, x8, #0xfffffff8
100000698: cb0d012b    	sub	x11, x9, x13
10000069c: 8b14016b    	add	x11, x11, x20
1000006a0: d100216b    	sub	x11, x11, #0x8
1000006a4: 8b1501ac    	add	x12, x13, x21
1000006a8: 8b0c000c    	add	x12, x0, x12
1000006ac: cb0a01ad    	sub	x13, x13, x10
1000006b0: fc5f8560    	ldr	d0, [x11], #-0x8
1000006b4: 0e200800    	rev64.8b	v0, v0
1000006b8: fc008580    	str	d0, [x12], #0x8
1000006bc: b10021ad    	adds	x13, x13, #0x8
1000006c0: 54ffff81    	b.ne	0x1000006b0 <_func0+0x16c>
1000006c4: eb08015f    	cmp	x10, x8
1000006c8: 54000160    	b.eq	0x1000006f4 <_func0+0x1b0>
1000006cc: 8b15014b    	add	x11, x10, x21
1000006d0: 8b0b000b    	add	x11, x0, x11
1000006d4: aa2a03ec    	mvn	x12, x10
1000006d8: 8b090189    	add	x9, x12, x9
1000006dc: 8b090289    	add	x9, x20, x9
1000006e0: cb0a0108    	sub	x8, x8, x10
1000006e4: 385ff52a    	ldrb	w10, [x9], #-0x1
1000006e8: 3800156a    	strb	w10, [x11], #0x1
1000006ec: f1000508    	subs	x8, x8, #0x1
1000006f0: 54ffffa1    	b.ne	0x1000006e4 <_func0+0x1a0>
1000006f4: 0b1302c8    	add	w8, w22, w19
1000006f8: 3828681f    	strb	wzr, [x0, x8]
1000006fc: a9427bfd    	ldp	x29, x30, [sp, #0x20]
100000700: a9414ff4    	ldp	x20, x19, [sp, #0x10]
100000704: a8c357f6    	ldp	x22, x21, [sp], #0x30
100000708: d65f03c0    	ret

