0000000100000540 <_func0>:
100000540: d100c3ff    	sub	sp, sp, #0x30
100000544: a9014ff4    	stp	x20, x19, [sp, #0x10]
100000548: a9027bfd    	stp	x29, x30, [sp, #0x20]
10000054c: 910083fd    	add	x29, sp, #0x20
100000550: 90000003    	adrp	x3, 0x100000000 <_strcmp+0x100000000>
100000554: 9122c463    	add	x3, x3, #0x8b1
100000558: f90003e0    	str	x0, [sp]
10000055c: 91002bf4    	add	x20, sp, #0xa
100000560: 91002be0    	add	x0, sp, #0xa
100000564: 52800001    	mov	w1, #0x0                ; =0
100000568: 528000c2    	mov	w2, #0x6                ; =6
10000056c: 9400009b    	bl	0x1000007d8 <_strcmp+0x1000007d8>
100000570: 39402be8    	ldrb	w8, [sp, #0xa]
100000574: 34000b08    	cbz	w8, 0x1000006d4 <_func0+0x194>
100000578: 52800013    	mov	w19, #0x0               ; =0
10000057c: 91000689    	add	x9, x20, #0x1
100000580: 0b288268    	add	w8, w19, w8, sxtb
100000584: 5100c113    	sub	w19, w8, #0x30
100000588: 38401528    	ldrb	w8, [x9], #0x1
10000058c: 35ffffa8    	cbnz	w8, 0x100000580 <_func0+0x40>
100000590: 52800420    	mov	w0, #0x21               ; =33
100000594: 94000097    	bl	0x1000007f0 <_strcmp+0x1000007f0>
100000598: 34000a33    	cbz	w19, 0x1000006dc <_func0+0x19c>
10000059c: 7100067f    	cmp	w19, #0x1
1000005a0: 54000aeb    	b.lt	0x1000006fc <_func0+0x1bc>
1000005a4: d2800008    	mov	x8, #0x0                ; =0
1000005a8: 52800609    	mov	w9, #0x30               ; =48
1000005ac: 33000269    	bfxil	w9, w19, #0, #1
1000005b0: 38286809    	strb	w9, [x0, x8]
1000005b4: 91000508    	add	x8, x8, #0x1
1000005b8: 53017e69    	lsr	w9, w19, #1
1000005bc: 71000a7f    	cmp	w19, #0x2
1000005c0: aa0903f3    	mov	x19, x9
1000005c4: 54ffff22    	b.hs	0x1000005a8 <_func0+0x68>
1000005c8: 8b08000a    	add	x10, x0, x8
1000005cc: 381fd55f    	strb	wzr, [x10], #-0x3
1000005d0: f100051f    	cmp	x8, #0x1
1000005d4: 540008c0    	b.eq	0x1000006ec <_func0+0x1ac>
1000005d8: d280000c    	mov	x12, #0x0               ; =0
1000005dc: d341fd0d    	lsr	x13, x8, #1
1000005e0: d10005ae    	sub	x14, x13, #0x1
1000005e4: b201f3e9    	mov	x9, #-0x5555555555555556 ; =-6148914691236517206
1000005e8: f2955569    	movk	x9, #0xaaab
1000005ec: 9bc97dc9    	umulh	x9, x14, x9
1000005f0: d342fd29    	lsr	x9, x9, #2
1000005f4: 528000cb    	mov	w11, #0x6               ; =6
1000005f8: 9b0bb929    	msub	x9, x9, x11, x14
1000005fc: 9100052b    	add	x11, x9, #0x1
100000600: f100197f    	cmp	x11, #0x6
100000604: 9a8907e9    	csinc	x9, xzr, x9, eq
100000608: f10015df    	cmp	x14, #0x5
10000060c: 540004a3    	b.lo	0x1000006a0 <_func0+0x160>
100000610: 9100080c    	add	x12, x0, #0x2
100000614: cb0901ae    	sub	x14, x13, x9
100000618: 528000ad    	mov	w13, #0x5               ; =5
10000061c: d10015af    	sub	x15, x13, #0x5
100000620: 385fe190    	ldurb	w16, [x12, #-0x2]
100000624: 39400951    	ldrb	w17, [x10, #0x2]
100000628: 381fe191    	sturb	w17, [x12, #-0x2]
10000062c: 39000950    	strb	w16, [x10, #0x2]
100000630: d27ff9ef    	eor	x15, x15, #0xfffffffffffffffe
100000634: 8b0f000f    	add	x15, x0, x15
100000638: 386869f0    	ldrb	w16, [x15, x8]
10000063c: 385ff191    	ldurb	w17, [x12, #-0x1]
100000640: 381ff190    	sturb	w16, [x12, #-0x1]
100000644: 382869f1    	strb	w17, [x15, x8]
100000648: 3940018f    	ldrb	w15, [x12]
10000064c: 39400150    	ldrb	w16, [x10]
100000650: 39000190    	strb	w16, [x12]
100000654: 3900014f    	strb	w15, [x10]
100000658: 3940058f    	ldrb	w15, [x12, #0x1]
10000065c: 385ff150    	ldurb	w16, [x10, #-0x1]
100000660: 39000590    	strb	w16, [x12, #0x1]
100000664: 381ff14f    	sturb	w15, [x10, #-0x1]
100000668: 3940098f    	ldrb	w15, [x12, #0x2]
10000066c: 385fe150    	ldurb	w16, [x10, #-0x2]
100000670: 39000990    	strb	w16, [x12, #0x2]
100000674: 381fe14f    	sturb	w15, [x10, #-0x2]
100000678: 39400d8f    	ldrb	w15, [x12, #0x3]
10000067c: 385fd150    	ldurb	w16, [x10, #-0x3]
100000680: 39000d90    	strb	w16, [x12, #0x3]
100000684: 381fd14f    	sturb	w15, [x10, #-0x3]
100000688: 910019ad    	add	x13, x13, #0x6
10000068c: d100194a    	sub	x10, x10, #0x6
100000690: 9100198c    	add	x12, x12, #0x6
100000694: d10019ce    	sub	x14, x14, #0x6
100000698: b5fffc2e    	cbnz	x14, 0x10000061c <_func0+0xdc>
10000069c: d10015ac    	sub	x12, x13, #0x5
1000006a0: f100197f    	cmp	x11, #0x6
1000006a4: 54000240    	b.eq	0x1000006ec <_func0+0x1ac>
1000006a8: cb0c000a    	sub	x10, x0, x12
1000006ac: 8b080148    	add	x8, x10, x8
1000006b0: d1000508    	sub	x8, x8, #0x1
1000006b4: 386c680a    	ldrb	w10, [x0, x12]
1000006b8: 3940010b    	ldrb	w11, [x8]
1000006bc: 382c680b    	strb	w11, [x0, x12]
1000006c0: 381ff50a    	strb	w10, [x8], #-0x1
1000006c4: 9100058c    	add	x12, x12, #0x1
1000006c8: f1000529    	subs	x9, x9, #0x1
1000006cc: 54ffff41    	b.ne	0x1000006b4 <_func0+0x174>
1000006d0: 14000007    	b	0x1000006ec <_func0+0x1ac>
1000006d4: 52800420    	mov	w0, #0x21               ; =33
1000006d8: 94000046    	bl	0x1000007f0 <_strcmp+0x1000007f0>
1000006dc: 52800608    	mov	w8, #0x30               ; =48
1000006e0: 39000008    	strb	w8, [x0]
1000006e4: 52800028    	mov	w8, #0x1                ; =1
1000006e8: 3828681f    	strb	wzr, [x0, x8]
1000006ec: a9427bfd    	ldp	x29, x30, [sp, #0x20]
1000006f0: a9414ff4    	ldp	x20, x19, [sp, #0x10]
1000006f4: 9100c3ff    	add	sp, sp, #0x30
1000006f8: d65f03c0    	ret
1000006fc: 383f681f    	strb	wzr, [x0, xzr]
100000700: 17fffffb    	b	0x1000006ec <_func0+0x1ac>

