00000001000007b0 <_func0>:
1000007b0: a9ba6ffc    	stp	x28, x27, [sp, #-0x60]!
1000007b4: a90167fa    	stp	x26, x25, [sp, #0x10]
1000007b8: a9025ff8    	stp	x24, x23, [sp, #0x20]
1000007bc: a90357f6    	stp	x22, x21, [sp, #0x30]
1000007c0: a9044ff4    	stp	x20, x19, [sp, #0x40]
1000007c4: a9057bfd    	stp	x29, x30, [sp, #0x50]
1000007c8: 910143fd    	add	x29, sp, #0x50
1000007cc: aa0103f4    	mov	x20, x1
1000007d0: aa0003f3    	mov	x19, x0
1000007d4: 937d7e80    	sbfiz	x0, x20, #3, #32
1000007d8: 940000df    	bl	0x100000b54 <_strcmp+0x100000b54>
1000007dc: 7100069f    	cmp	w20, #0x1
1000007e0: 5400122b    	b.lt	0x100000a24 <_func0+0x274>
1000007e4: 2a1403e8    	mov	w8, w20
1000007e8: d28538e9    	mov	x9, #0x29c7             ; =10695
1000007ec: f2b24749    	movk	x9, #0x923a, lsl #16
1000007f0: f2dff969    	movk	x9, #0xffcb, lsl #32
1000007f4: f2e801e9    	movk	x9, #0x400f, lsl #48
1000007f8: 9e670120    	fmov	d0, x9
1000007fc: 90000009    	adrp	x9, 0x100000000 <_strcmp+0x100000000>
100000800: 9131b929    	add	x9, x9, #0xc6e
100000804: d28dfa4a    	mov	x10, #0x6fd2            ; =28626
100000808: f2a0ebea    	movk	x10, #0x75f, lsl #16
10000080c: f2d339ca    	movk	x10, #0x99ce, lsl #32
100000810: f2e801aa    	movk	x10, #0x400d, lsl #48
100000814: d28793eb    	mov	x11, #0x3c9f            ; =15519
100000818: f2ba858b    	movk	x11, #0xd42c, lsl #16
10000081c: f2ccd34b    	movk	x11, #0x669a, lsl #32
100000820: f2e8014b    	movk	x11, #0x400a, lsl #48
100000824: 9000000c    	adrp	x12, 0x100000000 <_strcmp+0x100000000>
100000828: 912e798c    	add	x12, x12, #0xb9e
10000082c: 9000000d    	adrp	x13, 0x100000000 <_strcmp+0x100000000>
100000830: 9130bdad    	add	x13, x13, #0xc2f
100000834: d29ac72e    	mov	x14, #0xd639            ; =54841
100000838: f2adb8ae    	movk	x14, #0x6dc5, lsl #16
10000083c: f2c0068e    	movk	x14, #0x34, lsl #32
100000840: f2e8010e    	movk	x14, #0x4008, lsl #48
100000844: d28dfa4f    	mov	x15, #0x6fd2            ; =28626
100000848: f2a0ebef    	movk	x15, #0x75f, lsl #16
10000084c: f2d339cf    	movk	x15, #0x99ce, lsl #32
100000850: f2e800af    	movk	x15, #0x4005, lsl #48
100000854: 90000010    	adrp	x16, 0x100000000 <_strcmp+0x100000000>
100000858: 912e5e10    	add	x16, x16, #0xb97
10000085c: 90000011    	adrp	x17, 0x100000000 <_strcmp+0x100000000>
100000860: 9131c231    	add	x17, x17, #0xc70
100000864: d28793e1    	mov	x1, #0x3c9f             ; =15519
100000868: f2ba8581    	movk	x1, #0xd42c, lsl #16
10000086c: f2ccd341    	movk	x1, #0x669a, lsl #32
100000870: f2e80041    	movk	x1, #0x4002, lsl #48
100000874: d29ac722    	mov	x2, #0xd639             ; =54841
100000878: f2adb8a2    	movk	x2, #0x6dc5, lsl #16
10000087c: f2c00682    	movk	x2, #0x34, lsl #32
100000880: f2e80002    	movk	x2, #0x4000, lsl #48
100000884: 90000003    	adrp	x3, 0x100000000 <_strcmp+0x100000000>
100000888: 9131cc63    	add	x3, x3, #0xc73
10000088c: 90000004    	adrp	x4, 0x100000000 <_strcmp+0x100000000>
100000890: 912e7084    	add	x4, x4, #0xb9c
100000894: d29bf485    	mov	x5, #0xdfa4             ; =57252
100000898: f2a1d7c5    	movk	x5, #0xebe, lsl #16
10000089c: f2c67385    	movk	x5, #0x339c, lsl #32
1000008a0: f2e7ff65    	movk	x5, #0x3ffb, lsl #48
1000008a4: d28f27c6    	mov	x6, #0x793e             ; =31038
1000008a8: f2b50b06    	movk	x6, #0xa858, lsl #16
1000008ac: f2d9a6a6    	movk	x6, #0xcd35, lsl #32
1000008b0: f2e7fe86    	movk	x6, #0x3ff4, lsl #48
1000008b4: 90000007    	adrp	x7, 0x100000000 <_strcmp+0x100000000>
1000008b8: 912e64e7    	add	x7, x7, #0xb99
1000008bc: 90000014    	adrp	x20, 0x100000000 <_strcmp+0x100000000>
1000008c0: 912f2e94    	add	x20, x20, #0xbcb
1000008c4: d2958e35    	mov	x21, #0xac71            ; =44145
1000008c8: f2bb7175    	movk	x21, #0xdb8b, lsl #16
1000008cc: f2c00d15    	movk	x21, #0x68, lsl #32
1000008d0: f2e7fe15    	movk	x21, #0x3ff0, lsl #48
1000008d4: d297e916    	mov	x22, #0xbf48            ; =48968
1000008d8: f2a3afb6    	movk	x22, #0x1d7d, lsl #16
1000008dc: f2cce716    	movk	x22, #0x6738, lsl #32
1000008e0: f2e7fcd6    	movk	x22, #0x3fe6, lsl #48
1000008e4: 90000017    	adrp	x23, 0x100000000 <_strcmp+0x100000000>
1000008e8: 9130b6f7    	add	x23, x23, #0xc2d
1000008ec: 90000018    	adrp	x24, 0x100000000 <_strcmp+0x100000000>
1000008f0: 912fb318    	add	x24, x24, #0xbec
1000008f4: d28865b9    	mov	x25, #0x432d            ; =17197
1000008f8: f2bd6399    	movk	x25, #0xeb1c, lsl #16
1000008fc: f2c6dc59    	movk	x25, #0x36e2, lsl #32
100000900: f2e7e359    	movk	x25, #0x3f1a, lsl #48
100000904: 9000001a    	adrp	x26, 0x100000000 <_strcmp+0x100000000>
100000908: 9130375a    	add	x26, x26, #0xc0d
10000090c: aa0003fb    	mov	x27, x0
100000910: 9000001c    	adrp	x28, 0x100000000 <_strcmp+0x100000000>
100000914: 912e539c    	add	x28, x28, #0xb94
100000918: 14000006    	b	0x100000930 <_func0+0x180>
10000091c: f900037c    	str	x28, [x27]
100000920: 9100237b    	add	x27, x27, #0x8
100000924: 91001273    	add	x19, x19, #0x4
100000928: f1000508    	subs	x8, x8, #0x1
10000092c: 540007c0    	b.eq	0x100000a24 <_func0+0x274>
100000930: bd400261    	ldr	s1, [x19]
100000934: 1e22c021    	fcvt	d1, s1
100000938: 1e602020    	fcmp	d1, d0
10000093c: 54ffff0a    	b.ge	0x10000091c <_func0+0x16c>
100000940: 9e670142    	fmov	d2, x10
100000944: 1e622020    	fcmp	d1, d2
100000948: 5400006d    	b.le	0x100000954 <_func0+0x1a4>
10000094c: f9000369    	str	x9, [x27]
100000950: 17fffff4    	b	0x100000920 <_func0+0x170>
100000954: 9e670162    	fmov	d2, x11
100000958: 1e622020    	fcmp	d1, d2
10000095c: 5400006d    	b.le	0x100000968 <_func0+0x1b8>
100000960: f900036c    	str	x12, [x27]
100000964: 17ffffef    	b	0x100000920 <_func0+0x170>
100000968: 9e6701c2    	fmov	d2, x14
10000096c: 1e622020    	fcmp	d1, d2
100000970: 5400006d    	b.le	0x10000097c <_func0+0x1cc>
100000974: f900036d    	str	x13, [x27]
100000978: 17ffffea    	b	0x100000920 <_func0+0x170>
10000097c: 9e6701e2    	fmov	d2, x15
100000980: 1e622020    	fcmp	d1, d2
100000984: 5400006d    	b.le	0x100000990 <_func0+0x1e0>
100000988: f9000370    	str	x16, [x27]
10000098c: 17ffffe5    	b	0x100000920 <_func0+0x170>
100000990: 9e670022    	fmov	d2, x1
100000994: 1e622020    	fcmp	d1, d2
100000998: 5400006d    	b.le	0x1000009a4 <_func0+0x1f4>
10000099c: f9000371    	str	x17, [x27]
1000009a0: 17ffffe0    	b	0x100000920 <_func0+0x170>
1000009a4: 9e670042    	fmov	d2, x2
1000009a8: 1e622020    	fcmp	d1, d2
1000009ac: 5400006d    	b.le	0x1000009b8 <_func0+0x208>
1000009b0: f9000363    	str	x3, [x27]
1000009b4: 17ffffdb    	b	0x100000920 <_func0+0x170>
1000009b8: 9e6700a2    	fmov	d2, x5
1000009bc: 1e622020    	fcmp	d1, d2
1000009c0: 5400006d    	b.le	0x1000009cc <_func0+0x21c>
1000009c4: f9000364    	str	x4, [x27]
1000009c8: 17ffffd6    	b	0x100000920 <_func0+0x170>
1000009cc: 9e6700c2    	fmov	d2, x6
1000009d0: 1e622020    	fcmp	d1, d2
1000009d4: 5400006d    	b.le	0x1000009e0 <_func0+0x230>
1000009d8: f9000367    	str	x7, [x27]
1000009dc: 17ffffd1    	b	0x100000920 <_func0+0x170>
1000009e0: 9e6702a2    	fmov	d2, x21
1000009e4: 1e622020    	fcmp	d1, d2
1000009e8: 5400006d    	b.le	0x1000009f4 <_func0+0x244>
1000009ec: f9000374    	str	x20, [x27]
1000009f0: 17ffffcc    	b	0x100000920 <_func0+0x170>
1000009f4: 9e6702c2    	fmov	d2, x22
1000009f8: 1e622020    	fcmp	d1, d2
1000009fc: 5400006d    	b.le	0x100000a08 <_func0+0x258>
100000a00: f9000377    	str	x23, [x27]
100000a04: 17ffffc7    	b	0x100000920 <_func0+0x170>
100000a08: 9e670322    	fmov	d2, x25
100000a0c: 1e622020    	fcmp	d1, d2
100000a10: 5400006d    	b.le	0x100000a1c <_func0+0x26c>
100000a14: f9000378    	str	x24, [x27]
100000a18: 17ffffc2    	b	0x100000920 <_func0+0x170>
100000a1c: f900037a    	str	x26, [x27]
100000a20: 17ffffc0    	b	0x100000920 <_func0+0x170>
100000a24: a9457bfd    	ldp	x29, x30, [sp, #0x50]
100000a28: a9444ff4    	ldp	x20, x19, [sp, #0x40]
100000a2c: a94357f6    	ldp	x22, x21, [sp, #0x30]
100000a30: a9425ff8    	ldp	x24, x23, [sp, #0x20]
100000a34: a94167fa    	ldp	x26, x25, [sp, #0x10]
100000a38: a8c66ffc    	ldp	x28, x27, [sp], #0x60
100000a3c: d65f03c0    	ret

