00000001000004c8 <_func0>:
1000004c8: a9bb67fa    	stp	x26, x25, [sp, #-0x50]!
1000004cc: a9015ff8    	stp	x24, x23, [sp, #0x10]
1000004d0: a90257f6    	stp	x22, x21, [sp, #0x20]
1000004d4: a9034ff4    	stp	x20, x19, [sp, #0x30]
1000004d8: a9047bfd    	stp	x29, x30, [sp, #0x40]
1000004dc: 910103fd    	add	x29, sp, #0x40
1000004e0: aa0003f6    	mov	x22, x0
1000004e4: 2a0003f8    	mov	w24, w0
1000004e8: d37e7ec0    	ubfiz	x0, x22, #2, #32
1000004ec: 9400010d    	bl	0x100000920 <_malloc+0x100000920>
1000004f0: aa0003f3    	mov	x19, x0
1000004f4: 110006d7    	add	w23, w22, #0x1
1000004f8: 937d7ef5    	sbfiz	x21, x23, #3, #32
1000004fc: aa1503e0    	mov	x0, x21
100000500: 94000108    	bl	0x100000920 <_malloc+0x100000920>
100000504: aa0003f4    	mov	x20, x0
100000508: aa1503e0    	mov	x0, x21
10000050c: 94000105    	bl	0x100000920 <_malloc+0x100000920>
100000510: aa0003f5    	mov	x21, x0
100000514: d2800019    	mov	x25, #0x0               ; =0
100000518: d37d7ec8    	ubfiz	x8, x22, #3, #32
10000051c: 9100211a    	add	x26, x8, #0x8
100000520: 52800060    	mov	w0, #0x3                ; =3
100000524: 52800081    	mov	w1, #0x4                ; =4
100000528: 940000f8    	bl	0x100000908 <_malloc+0x100000908>
10000052c: f8396a80    	str	x0, [x20, x25]
100000530: 52800060    	mov	w0, #0x3                ; =3
100000534: 52800081    	mov	w1, #0x4                ; =4
100000538: 940000f4    	bl	0x100000908 <_malloc+0x100000908>
10000053c: f8396aa0    	str	x0, [x21, x25]
100000540: 91002339    	add	x25, x25, #0x8
100000544: eb19035f    	cmp	x26, x25
100000548: 54fffec1    	b.ne	0x100000520 <_func0+0x58>
10000054c: f9400288    	ldr	x8, [x20]
100000550: f94002a9    	ldr	x9, [x21]
100000554: b900091f    	str	wzr, [x8, #0x8]
100000558: 6f00e400    	movi.2d	v0, #0000000000000000
10000055c: fd000100    	str	d0, [x8]
100000560: b900093f    	str	wzr, [x9, #0x8]
100000564: fd000120    	str	d0, [x9]
100000568: 340009f6    	cbz	w22, 0x1000006a4 <_func0+0x1dc>
10000056c: d280000c    	mov	x12, #0x0               ; =0
100000570: 91002289    	add	x9, x20, #0x8
100000574: 5280002a    	mov	w10, #0x1               ; =1
100000578: 528aaacb    	mov	w11, #0x5556            ; =21846
10000057c: 72aaaaab    	movk	w11, #0x5555, lsl #16
100000580: 9100058d    	add	x13, x12, #0x1
100000584: 1b0d298e    	madd	w14, w12, w13, w10
100000588: 9b2b7dcf    	smull	x15, w14, w11
10000058c: d37ffdf0    	lsr	x16, x15, #63
100000590: d360fdef    	lsr	x15, x15, #32
100000594: 0b1001ef    	add	w15, w15, w16
100000598: 0b0f05ef    	add	w15, w15, w15, lsl #1
10000059c: 4b0f01ce    	sub	w14, w14, w15
1000005a0: b82c7a6e    	str	w14, [x19, x12, lsl #2]
1000005a4: f86c792f    	ldr	x15, [x9, x12, lsl #3]
1000005a8: b940010c    	ldr	w12, [x8]
1000005ac: b90001ec    	str	w12, [x15]
1000005b0: b940050c    	ldr	w12, [x8, #0x4]
1000005b4: b90005ec    	str	w12, [x15, #0x4]
1000005b8: b9400908    	ldr	w8, [x8, #0x8]
1000005bc: b90009e8    	str	w8, [x15, #0x8]
1000005c0: b86ed9e8    	ldr	w8, [x15, w14, sxtw #2]
1000005c4: 11000508    	add	w8, w8, #0x1
1000005c8: b82ed9e8    	str	w8, [x15, w14, sxtw #2]
1000005cc: aa0d03ec    	mov	x12, x13
1000005d0: aa0f03e8    	mov	x8, x15
1000005d4: eb0d031f    	cmp	x24, x13
1000005d8: 54fffd41    	b.ne	0x100000580 <_func0+0xb8>
1000005dc: 910022a8    	add	x8, x21, #0x8
1000005e0: 528aaac9    	mov	w9, #0x5556             ; =21846
1000005e4: 72aaaaa9    	movk	w9, #0x5555, lsl #16
1000005e8: aa1803ea    	mov	x10, x24
1000005ec: aa1303eb    	mov	x11, x19
1000005f0: aa1403ec    	mov	x12, x20
1000005f4: a97fb90d    	ldp	x13, x14, [x8, #-0x8]
1000005f8: b94001af    	ldr	w15, [x13]
1000005fc: b90001cf    	str	w15, [x14]
100000600: b94005af    	ldr	w15, [x13, #0x4]
100000604: b90005cf    	str	w15, [x14, #0x4]
100000608: b94009ad    	ldr	w13, [x13, #0x8]
10000060c: f840858f    	ldr	x15, [x12], #0x8
100000610: b90009cd    	str	w13, [x14, #0x8]
100000614: b880456d    	ldrsw	x13, [x11], #0x4
100000618: 9b297db0    	smull	x16, w13, w9
10000061c: d37ffe11    	lsr	x17, x16, #63
100000620: d360fe10    	lsr	x16, x16, #32
100000624: b94001e0    	ldr	w0, [x15]
100000628: 0b110210    	add	w16, w16, w17
10000062c: 0b100610    	add	w16, w16, w16, lsl #1
100000630: 4b1001b0    	sub	w16, w13, w16
100000634: b870d9d1    	ldr	w17, [x14, w16, sxtw #2]
100000638: 0b000231    	add	w17, w17, w0
10000063c: b830d9d1    	str	w17, [x14, w16, sxtw #2]
100000640: 110005b0    	add	w16, w13, #0x1
100000644: 9b297e11    	smull	x17, w16, w9
100000648: d37ffe20    	lsr	x0, x17, #63
10000064c: b94005e1    	ldr	w1, [x15, #0x4]
100000650: d360fe31    	lsr	x17, x17, #32
100000654: 0b000231    	add	w17, w17, w0
100000658: 0b110631    	add	w17, w17, w17, lsl #1
10000065c: 4b110210    	sub	w16, w16, w17
100000660: b870d9d1    	ldr	w17, [x14, w16, sxtw #2]
100000664: 0b010231    	add	w17, w17, w1
100000668: 110009ad    	add	w13, w13, #0x2
10000066c: 9b297da0    	smull	x0, w13, w9
100000670: d37ffc01    	lsr	x1, x0, #63
100000674: b830d9d1    	str	w17, [x14, w16, sxtw #2]
100000678: d360fc10    	lsr	x16, x0, #32
10000067c: 0b010210    	add	w16, w16, w1
100000680: 0b100610    	add	w16, w16, w16, lsl #1
100000684: 4b1001ad    	sub	w13, w13, w16
100000688: b86dd9d0    	ldr	w16, [x14, w13, sxtw #2]
10000068c: b94009ef    	ldr	w15, [x15, #0x8]
100000690: 0b0f020f    	add	w15, w16, w15
100000694: b82dd9cf    	str	w15, [x14, w13, sxtw #2]
100000698: 91002108    	add	x8, x8, #0x8
10000069c: f100054a    	subs	x10, x10, #0x1
1000006a0: 54fffaa1    	b.ne	0x1000005f4 <_func0+0x12c>
1000006a4: 37f80bf6    	tbnz	w22, #0x1f, 0x100000820 <_func0+0x358>
1000006a8: aa1703e8    	mov	x8, x23
1000006ac: aa1503e9    	mov	x9, x21
1000006b0: aa1403ea    	mov	x10, x20
1000006b4: f840852b    	ldr	x11, [x9], #0x8
1000006b8: f840854c    	ldr	x12, [x10], #0x8
1000006bc: b940016d    	ldr	w13, [x11]
1000006c0: b900018d    	str	w13, [x12]
1000006c4: b900017f    	str	wzr, [x11]
1000006c8: b940056d    	ldr	w13, [x11, #0x4]
1000006cc: b900058d    	str	w13, [x12, #0x4]
1000006d0: b900057f    	str	wzr, [x11, #0x4]
1000006d4: b940096d    	ldr	w13, [x11, #0x8]
1000006d8: b900098d    	str	w13, [x12, #0x8]
1000006dc: b900097f    	str	wzr, [x11, #0x8]
1000006e0: f1000508    	subs	x8, x8, #0x1
1000006e4: 54fffe81    	b.ne	0x1000006b4 <_func0+0x1ec>
1000006e8: 34000676    	cbz	w22, 0x1000007b4 <_func0+0x2ec>
1000006ec: 910022a8    	add	x8, x21, #0x8
1000006f0: 528aaac9    	mov	w9, #0x5556             ; =21846
1000006f4: 72aaaaa9    	movk	w9, #0x5555, lsl #16
1000006f8: aa1403ea    	mov	x10, x20
1000006fc: aa1303eb    	mov	x11, x19
100000700: aa1803ec    	mov	x12, x24
100000704: a97fb90d    	ldp	x13, x14, [x8, #-0x8]
100000708: b94001af    	ldr	w15, [x13]
10000070c: b90001cf    	str	w15, [x14]
100000710: b94005af    	ldr	w15, [x13, #0x4]
100000714: b90005cf    	str	w15, [x14, #0x4]
100000718: b94009ad    	ldr	w13, [x13, #0x8]
10000071c: f840854f    	ldr	x15, [x10], #0x8
100000720: b90009cd    	str	w13, [x14, #0x8]
100000724: b880456d    	ldrsw	x13, [x11], #0x4
100000728: 9b297db0    	smull	x16, w13, w9
10000072c: d37ffe11    	lsr	x17, x16, #63
100000730: d360fe10    	lsr	x16, x16, #32
100000734: b94001e0    	ldr	w0, [x15]
100000738: 0b110210    	add	w16, w16, w17
10000073c: 0b100610    	add	w16, w16, w16, lsl #1
100000740: 4b1001b0    	sub	w16, w13, w16
100000744: b870d9d1    	ldr	w17, [x14, w16, sxtw #2]
100000748: 0b000231    	add	w17, w17, w0
10000074c: b830d9d1    	str	w17, [x14, w16, sxtw #2]
100000750: 110005b0    	add	w16, w13, #0x1
100000754: 9b297e11    	smull	x17, w16, w9
100000758: d37ffe20    	lsr	x0, x17, #63
10000075c: b94005e1    	ldr	w1, [x15, #0x4]
100000760: d360fe31    	lsr	x17, x17, #32
100000764: 0b000231    	add	w17, w17, w0
100000768: 0b110631    	add	w17, w17, w17, lsl #1
10000076c: 4b110210    	sub	w16, w16, w17
100000770: b870d9d1    	ldr	w17, [x14, w16, sxtw #2]
100000774: 0b010231    	add	w17, w17, w1
100000778: 110009ad    	add	w13, w13, #0x2
10000077c: 9b297da0    	smull	x0, w13, w9
100000780: d37ffc01    	lsr	x1, x0, #63
100000784: b830d9d1    	str	w17, [x14, w16, sxtw #2]
100000788: d360fc10    	lsr	x16, x0, #32
10000078c: 0b010210    	add	w16, w16, w1
100000790: 0b100610    	add	w16, w16, w16, lsl #1
100000794: 4b1001ad    	sub	w13, w13, w16
100000798: b86dd9d0    	ldr	w16, [x14, w13, sxtw #2]
10000079c: b94009ef    	ldr	w15, [x15, #0x8]
1000007a0: 0b0f020f    	add	w15, w16, w15
1000007a4: b82dd9cf    	str	w15, [x14, w13, sxtw #2]
1000007a8: 91002108    	add	x8, x8, #0x8
1000007ac: f100058c    	subs	x12, x12, #0x1
1000007b0: 54fffaa1    	b.ne	0x100000704 <_func0+0x23c>
1000007b4: aa1503e8    	mov	x8, x21
1000007b8: aa1403e9    	mov	x9, x20
1000007bc: aa1703ea    	mov	x10, x23
1000007c0: f840850b    	ldr	x11, [x8], #0x8
1000007c4: f840852c    	ldr	x12, [x9], #0x8
1000007c8: b940016d    	ldr	w13, [x11]
1000007cc: b900018d    	str	w13, [x12]
1000007d0: b900017f    	str	wzr, [x11]
1000007d4: b940056d    	ldr	w13, [x11, #0x4]
1000007d8: b900058d    	str	w13, [x12, #0x4]
1000007dc: b900057f    	str	wzr, [x11, #0x4]
1000007e0: b940096d    	ldr	w13, [x11, #0x8]
1000007e4: b900098d    	str	w13, [x12, #0x8]
1000007e8: b900097f    	str	wzr, [x11, #0x8]
1000007ec: f100054a    	subs	x10, x10, #0x1
1000007f0: 54fffe81    	b.ne	0x1000007c0 <_func0+0x2f8>
1000007f4: f8787a88    	ldr	x8, [x20, x24, lsl #3]
1000007f8: b9400116    	ldr	w22, [x8]
1000007fc: aa1403f8    	mov	x24, x20
100000800: aa1503f9    	mov	x25, x21
100000804: f8408700    	ldr	x0, [x24], #0x8
100000808: 94000043    	bl	0x100000914 <_malloc+0x100000914>
10000080c: f8408720    	ldr	x0, [x25], #0x8
100000810: 94000041    	bl	0x100000914 <_malloc+0x100000914>
100000814: f10006f7    	subs	x23, x23, #0x1
100000818: 54ffff61    	b.ne	0x100000804 <_func0+0x33c>
10000081c: 14000003    	b	0x100000828 <_func0+0x360>
100000820: f8787a88    	ldr	x8, [x20, x24, lsl #3]
100000824: b9400116    	ldr	w22, [x8]
100000828: aa1403e0    	mov	x0, x20
10000082c: 9400003a    	bl	0x100000914 <_malloc+0x100000914>
100000830: aa1503e0    	mov	x0, x21
100000834: 94000038    	bl	0x100000914 <_malloc+0x100000914>
100000838: aa1303e0    	mov	x0, x19
10000083c: 94000036    	bl	0x100000914 <_malloc+0x100000914>
100000840: aa1603e0    	mov	x0, x22
100000844: a9447bfd    	ldp	x29, x30, [sp, #0x40]
100000848: a9434ff4    	ldp	x20, x19, [sp, #0x30]
10000084c: a94257f6    	ldp	x22, x21, [sp, #0x20]
100000850: a9415ff8    	ldp	x24, x23, [sp, #0x10]
100000854: a8c567fa    	ldp	x26, x25, [sp], #0x50
100000858: d65f03c0    	ret

