0000000100000710 <_func0>:
100000710: d105c3ff    	sub	sp, sp, #0x170
100000714: a9116ffc    	stp	x28, x27, [sp, #0x110]
100000718: a91267fa    	stp	x26, x25, [sp, #0x120]
10000071c: a9135ff8    	stp	x24, x23, [sp, #0x130]
100000720: a91457f6    	stp	x22, x21, [sp, #0x140]
100000724: a9154ff4    	stp	x20, x19, [sp, #0x150]
100000728: a9167bfd    	stp	x29, x30, [sp, #0x160]
10000072c: 910583fd    	add	x29, sp, #0x160
100000730: 90000028    	adrp	x8, 0x100004000 <_strlen+0x100004000>
100000734: f9400908    	ldr	x8, [x8, #0x10]
100000738: f9400108    	ldr	x8, [x8]
10000073c: f81a03a8    	stur	x8, [x29, #-0x60]
100000740: 7100043f    	cmp	w1, #0x1
100000744: 5400066b    	b.lt	0x100000810 <_func0+0x100>
100000748: aa0003f3    	mov	x19, x0
10000074c: d2800016    	mov	x22, #0x0               ; =0
100000750: 52800018    	mov	w24, #0x0               ; =0
100000754: 2a0103f7    	mov	w23, w1
100000758: 910003f9    	mov	x25, sp
10000075c: 90000014    	adrp	x20, 0x100000000 <_strlen+0x100000000>
100000760: 91308294    	add	x20, x20, #0xc20
100000764: 14000006    	b	0x10000077c <_func0+0x6c>
100000768: aa1a03f8    	mov	x24, x26
10000076c: aa1503f4    	mov	x20, x21
100000770: 910006d6    	add	x22, x22, #0x1
100000774: eb1702df    	cmp	x22, x23
100000778: 54000500    	b.eq	0x100000818 <_func0+0x108>
10000077c: 6f00e400    	movi.2d	v0, #0000000000000000
100000780: ad0703e0    	stp	q0, q0, [sp, #0xe0]
100000784: ad0603e0    	stp	q0, q0, [sp, #0xc0]
100000788: ad0503e0    	stp	q0, q0, [sp, #0xa0]
10000078c: ad0403e0    	stp	q0, q0, [sp, #0x80]
100000790: ad0303e0    	stp	q0, q0, [sp, #0x60]
100000794: ad0203e0    	stp	q0, q0, [sp, #0x40]
100000798: ad0103e0    	stp	q0, q0, [sp, #0x20]
10000079c: ad0003e0    	stp	q0, q0, [sp]
1000007a0: f8767a75    	ldr	x21, [x19, x22, lsl #3]
1000007a4: 394002bc    	ldrb	w28, [x21]
1000007a8: 3400023c    	cbz	w28, 0x1000007ec <_func0+0xdc>
1000007ac: 5280001a    	mov	w26, #0x0               ; =0
1000007b0: 910006bb    	add	x27, x21, #0x1
1000007b4: 14000003    	b	0x1000007c0 <_func0+0xb0>
1000007b8: 3840177c    	ldrb	w28, [x27], #0x1
1000007bc: 340001bc    	cbz	w28, 0x1000007f0 <_func0+0xe0>
1000007c0: 13001f81    	sxtb	w1, w28
1000007c4: 910003e0    	mov	x0, sp
1000007c8: 9400008e    	bl	0x100000a00 <_strlen+0x100000a00>
1000007cc: b5ffff60    	cbnz	x0, 0x1000007b8 <_func0+0xa8>
1000007d0: 910003e0    	mov	x0, sp
1000007d4: 94000091    	bl	0x100000a18 <_strlen+0x100000a18>
1000007d8: 3820cb3c    	strb	w28, [x25, w0, sxtw]
1000007dc: 11000408    	add	w8, w0, #0x1
1000007e0: 3828cb3f    	strb	wzr, [x25, w8, sxtw]
1000007e4: 1100075a    	add	w26, w26, #0x1
1000007e8: 17fffff4    	b	0x1000007b8 <_func0+0xa8>
1000007ec: 5280001a    	mov	w26, #0x0               ; =0
1000007f0: 6b18035f    	cmp	w26, w24
1000007f4: 54fffbac    	b.gt	0x100000768 <_func0+0x58>
1000007f8: 54fffbc1    	b.ne	0x100000770 <_func0+0x60>
1000007fc: aa1503e0    	mov	x0, x21
100000800: aa1403e1    	mov	x1, x20
100000804: 94000082    	bl	0x100000a0c <_strlen+0x100000a0c>
100000808: 37fffb00    	tbnz	w0, #0x1f, 0x100000768 <_func0+0x58>
10000080c: 17ffffd9    	b	0x100000770 <_func0+0x60>
100000810: 90000014    	adrp	x20, 0x100000000 <_strlen+0x100000000>
100000814: 91308294    	add	x20, x20, #0xc20
100000818: f85a03a8    	ldur	x8, [x29, #-0x60]
10000081c: 90000029    	adrp	x9, 0x100004000 <_strlen+0x100004000>
100000820: f9400929    	ldr	x9, [x9, #0x10]
100000824: f9400129    	ldr	x9, [x9]
100000828: eb08013f    	cmp	x9, x8
10000082c: 54000141    	b.ne	0x100000854 <_func0+0x144>
100000830: aa1403e0    	mov	x0, x20
100000834: a9567bfd    	ldp	x29, x30, [sp, #0x160]
100000838: a9554ff4    	ldp	x20, x19, [sp, #0x150]
10000083c: a95457f6    	ldp	x22, x21, [sp, #0x140]
100000840: a9535ff8    	ldp	x24, x23, [sp, #0x130]
100000844: a95267fa    	ldp	x26, x25, [sp, #0x120]
100000848: a9516ffc    	ldp	x28, x27, [sp, #0x110]
10000084c: 9105c3ff    	add	sp, sp, #0x170
100000850: d65f03c0    	ret
100000854: 94000068    	bl	0x1000009f4 <_strlen+0x1000009f4>

