0000000100000610 <_func0>:
100000610: 340007c1    	cbz	w1, 0x100000708 <_func0+0xf8>
100000614: 7100043f    	cmp	w1, #0x1
100000618: 540008cb    	b.lt	0x100000730 <_func0+0x120>
10000061c: a9ba6ffc    	stp	x28, x27, [sp, #-0x60]!
100000620: a90167fa    	stp	x26, x25, [sp, #0x10]
100000624: a9025ff8    	stp	x24, x23, [sp, #0x20]
100000628: a90357f6    	stp	x22, x21, [sp, #0x30]
10000062c: a9044ff4    	stp	x20, x19, [sp, #0x40]
100000630: a9057bfd    	stp	x29, x30, [sp, #0x50]
100000634: 910143fd    	add	x29, sp, #0x50
100000638: aa0003f3    	mov	x19, x0
10000063c: d2800015    	mov	x21, #0x0               ; =0
100000640: 5280001a    	mov	w26, #0x0               ; =0
100000644: 52800016    	mov	w22, #0x0               ; =0
100000648: 52800017    	mov	w23, #0x0               ; =0
10000064c: 90000038    	adrp	x24, 0x100004000 <___stack_chk_guard+0x100004000>
100000650: f9400318    	ldr	x24, [x24]
100000654: 2a0103f9    	mov	w25, w1
100000658: 14000006    	b	0x100000670 <_func0+0x60>
10000065c: 910006b5    	add	x21, x21, #0x1
100000660: 52800020    	mov	w0, #0x1                ; =1
100000664: eb1902bf    	cmp	x21, x25
100000668: 1a9f37fa    	cset	w26, hs
10000066c: 54000540    	b.eq	0x100000714 <_func0+0x104>
100000670: d37ceea8    	lsl	x8, x21, #4
100000674: f8686a68    	ldr	x8, [x19, x8]
100000678: 39400114    	ldrb	w20, [x8]
10000067c: 34ffff14    	cbz	w20, 0x10000065c <_func0+0x4c>
100000680: 9100051b    	add	x27, x8, #0x1
100000684: 373800f4    	tbnz	w20, #0x7, 0x1000006a0 <_func0+0x90>
100000688: 8b344b08    	add	x8, x24, w20, uxtw #2
10000068c: b9403d08    	ldr	w8, [x8, #0x3c]
100000690: 36400408    	tbz	w8, #0x8, 0x100000710 <_func0+0x100>
100000694: 7211011f    	tst	w8, #0x8000
100000698: 1a9f06d6    	csinc	w22, w22, wzr, eq
10000069c: 1400000c    	b	0x1000006cc <_func0+0xbc>
1000006a0: aa1403e0    	mov	x0, x20
1000006a4: 52802001    	mov	w1, #0x100              ; =256
1000006a8: 9400006d    	bl	0x10000085c <___stack_chk_guard+0x10000085c>
1000006ac: 34000320    	cbz	w0, 0x100000710 <_func0+0x100>
1000006b0: aa1403e0    	mov	x0, x20
1000006b4: 52900001    	mov	w1, #0x8000             ; =32768
1000006b8: 94000069    	bl	0x10000085c <___stack_chk_guard+0x10000085c>
1000006bc: 385ff374    	ldurb	w20, [x27, #-0x1]
1000006c0: 7100001f    	cmp	w0, #0x0
1000006c4: 1a9f06d6    	csinc	w22, w22, wzr, eq
1000006c8: 37380194    	tbnz	w20, #0x7, 0x1000006f8 <_func0+0xe8>
1000006cc: 8b344b08    	add	x8, x24, w20, uxtw #2
1000006d0: b9403d08    	ldr	w8, [x8, #0x3c]
1000006d4: 12140100    	and	w0, w8, #0x1000
1000006d8: 7100001f    	cmp	w0, #0x0
1000006dc: 1a9f06f7    	csinc	w23, w23, wzr, eq
1000006e0: 0b1602e8    	add	w8, w23, w22
1000006e4: 7100091f    	cmp	w8, #0x2
1000006e8: 54000140    	b.eq	0x100000710 <_func0+0x100>
1000006ec: 38401774    	ldrb	w20, [x27], #0x1
1000006f0: 35fffcb4    	cbnz	w20, 0x100000684 <_func0+0x74>
1000006f4: 17ffffda    	b	0x10000065c <_func0+0x4c>
1000006f8: aa1403e0    	mov	x0, x20
1000006fc: 52820001    	mov	w1, #0x1000             ; =4096
100000700: 94000057    	bl	0x10000085c <___stack_chk_guard+0x10000085c>
100000704: 17fffff5    	b	0x1000006d8 <_func0+0xc8>
100000708: 52800000    	mov	w0, #0x0                ; =0
10000070c: d65f03c0    	ret
100000710: 12000340    	and	w0, w26, #0x1
100000714: a9457bfd    	ldp	x29, x30, [sp, #0x50]
100000718: a9444ff4    	ldp	x20, x19, [sp, #0x40]
10000071c: a94357f6    	ldp	x22, x21, [sp, #0x30]
100000720: a9425ff8    	ldp	x24, x23, [sp, #0x20]
100000724: a94167fa    	ldp	x26, x25, [sp, #0x10]
100000728: a8c66ffc    	ldp	x28, x27, [sp], #0x60
10000072c: d65f03c0    	ret
100000730: 52800020    	mov	w0, #0x1                ; =1
100000734: d65f03c0    	ret

