0000000100000620 <_func0>:
100000620: a9bb67fa    	stp	x26, x25, [sp, #-0x50]!
100000624: a9015ff8    	stp	x24, x23, [sp, #0x10]
100000628: a90257f6    	stp	x22, x21, [sp, #0x20]
10000062c: a9034ff4    	stp	x20, x19, [sp, #0x30]
100000630: a9047bfd    	stp	x29, x30, [sp, #0x40]
100000634: 910103fd    	add	x29, sp, #0x40
100000638: aa0003f3    	mov	x19, x0
10000063c: 940000db    	bl	0x1000009a8 <_strlen+0x1000009a8>
100000640: aa0003f4    	mov	x20, x0
100000644: 7100069f    	cmp	w20, #0x1
100000648: 5400052b    	b.lt	0x1000006ec <_func0+0xcc>
10000064c: 52800016    	mov	w22, #0x0               ; =0
100000650: 92407a97    	and	x23, x20, #0x7fffffff
100000654: 90000038    	adrp	x24, 0x100004000 <_strlen+0x100004000>
100000658: f9400318    	ldr	x24, [x24]
10000065c: aa1303f9    	mov	x25, x19
100000660: 14000005    	b	0x100000674 <_func0+0x54>
100000664: 110006d6    	add	w22, w22, #0x1
100000668: 91000739    	add	x25, x25, #0x1
10000066c: f10006f7    	subs	x23, x23, #0x1
100000670: 54000400    	b.eq	0x1000006f0 <_func0+0xd0>
100000674: 39c00328    	ldrsb	w8, [x25]
100000678: 12001d15    	and	w21, w8, #0xff
10000067c: 37f80108    	tbnz	w8, #0x1f, 0x10000069c <_func0+0x7c>
100000680: 8b354b08    	add	x8, x24, w21, uxtw #2
100000684: b9403d08    	ldr	w8, [x8, #0x3c]
100000688: 3647fee8    	tbz	w8, #0x8, 0x100000664 <_func0+0x44>
10000068c: 37780188    	tbnz	w8, #0xf, 0x1000006bc <_func0+0x9c>
100000690: 12140100    	and	w0, w8, #0x1000
100000694: 35000240    	cbnz	w0, 0x1000006dc <_func0+0xbc>
100000698: 17fffff4    	b	0x100000668 <_func0+0x48>
10000069c: aa1503e0    	mov	x0, x21
1000006a0: 52802001    	mov	w1, #0x100              ; =256
1000006a4: 940000b2    	bl	0x10000096c <_strlen+0x10000096c>
1000006a8: 34fffde0    	cbz	w0, 0x100000664 <_func0+0x44>
1000006ac: aa1503e0    	mov	x0, x21
1000006b0: 52900001    	mov	w1, #0x8000             ; =32768
1000006b4: 940000ae    	bl	0x10000096c <_strlen+0x10000096c>
1000006b8: 340000a0    	cbz	w0, 0x1000006cc <_func0+0xac>
1000006bc: aa1503e0    	mov	x0, x21
1000006c0: 940000b1    	bl	0x100000984 <_strlen+0x100000984>
1000006c4: 39000320    	strb	w0, [x25]
1000006c8: 17ffffe8    	b	0x100000668 <_func0+0x48>
1000006cc: aa1503e0    	mov	x0, x21
1000006d0: 52820001    	mov	w1, #0x1000             ; =4096
1000006d4: 940000a6    	bl	0x10000096c <_strlen+0x10000096c>
1000006d8: 34fffc80    	cbz	w0, 0x100000668 <_func0+0x48>
1000006dc: aa1503e0    	mov	x0, x21
1000006e0: 940000ac    	bl	0x100000990 <_strlen+0x100000990>
1000006e4: 39000320    	strb	w0, [x25]
1000006e8: 17ffffe0    	b	0x100000668 <_func0+0x48>
1000006ec: 52800016    	mov	w22, #0x0               ; =0
1000006f0: 6b1402df    	cmp	w22, w20
1000006f4: 54000881    	b.ne	0x100000804 <_func0+0x1e4>
1000006f8: 71000a9f    	cmp	w20, #0x2
1000006fc: 5400084b    	b.lt	0x100000804 <_func0+0x1e4>
100000700: d280000b    	mov	x11, #0x0               ; =0
100000704: 92407a89    	and	x9, x20, #0x7fffffff
100000708: d3417a8c    	ubfx	x12, x20, #1, #30
10000070c: d100058d    	sub	x13, x12, #0x1
100000710: b201f3e8    	mov	x8, #-0x5555555555555556 ; =-6148914691236517206
100000714: f2955568    	movk	x8, #0xaaab
100000718: 9bc87da8    	umulh	x8, x13, x8
10000071c: d342fd08    	lsr	x8, x8, #2
100000720: 528000ca    	mov	w10, #0x6               ; =6
100000724: 9b0ab508    	msub	x8, x8, x10, x13
100000728: 9100050a    	add	x10, x8, #0x1
10000072c: f100195f    	cmp	x10, #0x6
100000730: 9a8807e8    	csinc	x8, xzr, x8, eq
100000734: f10015bf    	cmp	x13, #0x5
100000738: 540004e3    	b.lo	0x1000007d4 <_func0+0x1b4>
10000073c: 8b09026b    	add	x11, x19, x9
100000740: cb08018c    	sub	x12, x12, x8
100000744: 91000a6d    	add	x13, x19, #0x2
100000748: 8b13012e    	add	x14, x9, x19
10000074c: d1000dcf    	sub	x15, x14, #0x3
100000750: 528000ae    	mov	w14, #0x5               ; =5
100000754: d10015d0    	sub	x16, x14, #0x5
100000758: 385fe1b1    	ldurb	w17, [x13, #-0x2]
10000075c: 394009e0    	ldrb	w0, [x15, #0x2]
100000760: 381fe1a0    	sturb	w0, [x13, #-0x2]
100000764: 390009f1    	strb	w17, [x15, #0x2]
100000768: d27ffa10    	eor	x16, x16, #0xfffffffffffffffe
10000076c: 38706971    	ldrb	w17, [x11, x16]
100000770: 385ff1a0    	ldurb	w0, [x13, #-0x1]
100000774: 381ff1b1    	sturb	w17, [x13, #-0x1]
100000778: 38306960    	strb	w0, [x11, x16]
10000077c: 394001b0    	ldrb	w16, [x13]
100000780: 394001f1    	ldrb	w17, [x15]
100000784: 390001b1    	strb	w17, [x13]
100000788: 390001f0    	strb	w16, [x15]
10000078c: 394005b0    	ldrb	w16, [x13, #0x1]
100000790: 385ff1f1    	ldurb	w17, [x15, #-0x1]
100000794: 390005b1    	strb	w17, [x13, #0x1]
100000798: 381ff1f0    	sturb	w16, [x15, #-0x1]
10000079c: 394009b0    	ldrb	w16, [x13, #0x2]
1000007a0: 385fe1f1    	ldurb	w17, [x15, #-0x2]
1000007a4: 390009b1    	strb	w17, [x13, #0x2]
1000007a8: 381fe1f0    	sturb	w16, [x15, #-0x2]
1000007ac: 39400db0    	ldrb	w16, [x13, #0x3]
1000007b0: 385fd1f1    	ldurb	w17, [x15, #-0x3]
1000007b4: 39000db1    	strb	w17, [x13, #0x3]
1000007b8: 381fd1f0    	sturb	w16, [x15, #-0x3]
1000007bc: 910019ce    	add	x14, x14, #0x6
1000007c0: d10019ef    	sub	x15, x15, #0x6
1000007c4: 910019ad    	add	x13, x13, #0x6
1000007c8: d100198c    	sub	x12, x12, #0x6
1000007cc: b5fffc4c    	cbnz	x12, 0x100000754 <_func0+0x134>
1000007d0: d10015cb    	sub	x11, x14, #0x5
1000007d4: f100195f    	cmp	x10, #0x6
1000007d8: 54000160    	b.eq	0x100000804 <_func0+0x1e4>
1000007dc: aa2b03ea    	mvn	x10, x11
1000007e0: 8b0a026a    	add	x10, x19, x10
1000007e4: 8b090149    	add	x9, x10, x9
1000007e8: 8b0b026a    	add	x10, x19, x11
1000007ec: 3940014b    	ldrb	w11, [x10]
1000007f0: 3940012c    	ldrb	w12, [x9]
1000007f4: 3800154c    	strb	w12, [x10], #0x1
1000007f8: 381ff52b    	strb	w11, [x9], #-0x1
1000007fc: f1000508    	subs	x8, x8, #0x1
100000800: 54ffff61    	b.ne	0x1000007ec <_func0+0x1cc>
100000804: aa1303e0    	mov	x0, x19
100000808: a9447bfd    	ldp	x29, x30, [sp, #0x40]
10000080c: a9434ff4    	ldp	x20, x19, [sp, #0x30]
100000810: a94257f6    	ldp	x22, x21, [sp, #0x20]
100000814: a9415ff8    	ldp	x24, x23, [sp, #0x10]
100000818: a8c567fa    	ldp	x26, x25, [sp], #0x50
10000081c: d65f03c0    	ret

