000000010000063c <_func0>:
10000063c: a9bc5ff8    	stp	x24, x23, [sp, #-0x40]!
100000640: a90157f6    	stp	x22, x21, [sp, #0x10]
100000644: a9024ff4    	stp	x20, x19, [sp, #0x20]
100000648: a9037bfd    	stp	x29, x30, [sp, #0x30]
10000064c: 9100c3fd    	add	x29, sp, #0x30
100000650: aa0203f3    	mov	x19, x2
100000654: aa0103f8    	mov	x24, x1
100000658: aa0003f5    	mov	x21, x0
10000065c: 93407f17    	sxtw	x23, w24
100000660: 937e7f00    	sbfiz	x0, x24, #2, #32
100000664: 9400007a    	bl	0x10000084c <_malloc+0x10000084c>
100000668: aa0003f4    	mov	x20, x0
10000066c: aa1703e0    	mov	x0, x23
100000670: 52800081    	mov	w1, #0x4                ; =4
100000674: 94000070    	bl	0x100000834 <_malloc+0x100000834>
100000678: aa0003f6    	mov	x22, x0
10000067c: aa1703e0    	mov	x0, x23
100000680: 52800081    	mov	w1, #0x4                ; =4
100000684: 9400006c    	bl	0x100000834 <_malloc+0x100000834>
100000688: aa0003f7    	mov	x23, x0
10000068c: 7100071f    	cmp	w24, #0x1
100000690: 5400072b    	b.lt	0x100000774 <_func0+0x138>
100000694: d280000a    	mov	x10, #0x0               ; =0
100000698: 5280000b    	mov	w11, #0x0               ; =0
10000069c: 52800009    	mov	w9, #0x0                ; =0
1000006a0: 2a1803e8    	mov	w8, w24
1000006a4: 14000008    	b	0x1000006c4 <_func0+0x88>
1000006a8: aa0b03ed    	mov	x13, x11
1000006ac: 1100056b    	add	w11, w11, #0x1
1000006b0: aa1603ee    	mov	x14, x22
1000006b4: b82dd9cc    	str	w12, [x14, w13, sxtw #2]
1000006b8: 9100054a    	add	x10, x10, #0x1
1000006bc: eb08015f    	cmp	x10, x8
1000006c0: 54000320    	b.eq	0x100000724 <_func0+0xe8>
1000006c4: b86a7aac    	ldr	w12, [x21, x10, lsl #2]
1000006c8: 7100053f    	cmp	w9, #0x1
1000006cc: 5400010b    	b.lt	0x1000006ec <_func0+0xb0>
1000006d0: 2a0903ed    	mov	w13, w9
1000006d4: aa1703ee    	mov	x14, x23
1000006d8: b84045cf    	ldr	w15, [x14], #0x4
1000006dc: 6b0c01ff    	cmp	w15, w12
1000006e0: 54fffec0    	b.eq	0x1000006b8 <_func0+0x7c>
1000006e4: f10005ad    	subs	x13, x13, #0x1
1000006e8: 54ffff81    	b.ne	0x1000006d8 <_func0+0x9c>
1000006ec: 7100057f    	cmp	w11, #0x1
1000006f0: 54fffdcb    	b.lt	0x1000006a8 <_func0+0x6c>
1000006f4: 2a0b03ed    	mov	w13, w11
1000006f8: aa1603ee    	mov	x14, x22
1000006fc: b84045cf    	ldr	w15, [x14], #0x4
100000700: 6b0c01ff    	cmp	w15, w12
100000704: 54000080    	b.eq	0x100000714 <_func0+0xd8>
100000708: f10005ad    	subs	x13, x13, #0x1
10000070c: 54ffff81    	b.ne	0x1000006fc <_func0+0xc0>
100000710: 17ffffe6    	b	0x1000006a8 <_func0+0x6c>
100000714: aa0903ed    	mov	x13, x9
100000718: 11000529    	add	w9, w9, #0x1
10000071c: aa1703ee    	mov	x14, x23
100000720: 17ffffe5    	b	0x1000006b4 <_func0+0x78>
100000724: d280000b    	mov	x11, #0x0               ; =0
100000728: 5280000a    	mov	w10, #0x0               ; =0
10000072c: 2a0903ec    	mov	w12, w9
100000730: 14000006    	b	0x100000748 <_func0+0x10c>
100000734: b82ada8d    	str	w13, [x20, w10, sxtw #2]
100000738: 1100054a    	add	w10, w10, #0x1
10000073c: 9100056b    	add	x11, x11, #0x1
100000740: eb08017f    	cmp	x11, x8
100000744: 540001a0    	b.eq	0x100000778 <_func0+0x13c>
100000748: b86b7aad    	ldr	w13, [x21, x11, lsl #2]
10000074c: aa0c03ee    	mov	x14, x12
100000750: aa1703ef    	mov	x15, x23
100000754: 7100053f    	cmp	w9, #0x1
100000758: 54fffeeb    	b.lt	0x100000734 <_func0+0xf8>
10000075c: b84045f0    	ldr	w16, [x15], #0x4
100000760: 6b0d021f    	cmp	w16, w13
100000764: 54fffec0    	b.eq	0x10000073c <_func0+0x100>
100000768: f10005ce    	subs	x14, x14, #0x1
10000076c: 54ffff81    	b.ne	0x10000075c <_func0+0x120>
100000770: 17fffff1    	b	0x100000734 <_func0+0xf8>
100000774: 5280000a    	mov	w10, #0x0               ; =0
100000778: b900026a    	str	w10, [x19]
10000077c: aa1603e0    	mov	x0, x22
100000780: 94000030    	bl	0x100000840 <_malloc+0x100000840>
100000784: aa1703e0    	mov	x0, x23
100000788: 9400002e    	bl	0x100000840 <_malloc+0x100000840>
10000078c: aa1403e0    	mov	x0, x20
100000790: a9437bfd    	ldp	x29, x30, [sp, #0x30]
100000794: a9424ff4    	ldp	x20, x19, [sp, #0x20]
100000798: a94157f6    	ldp	x22, x21, [sp, #0x10]
10000079c: a8c45ff8    	ldp	x24, x23, [sp], #0x40
1000007a0: d65f03c0    	ret

