00000001000005f8 <_func0>:
1000005f8: d10483ff    	sub	sp, sp, #0x120
1000005fc: a90e5ff8    	stp	x24, x23, [sp, #0xe0]
100000600: a90f57f6    	stp	x22, x21, [sp, #0xf0]
100000604: a9104ff4    	stp	x20, x19, [sp, #0x100]
100000608: a9117bfd    	stp	x29, x30, [sp, #0x110]
10000060c: 910443fd    	add	x29, sp, #0x110
100000610: aa0103f3    	mov	x19, x1
100000614: aa0003f5    	mov	x21, x0
100000618: 90000028    	adrp	x8, 0x100004000 <_atoi+0x100004000>
10000061c: f9400908    	ldr	x8, [x8, #0x10]
100000620: f9400108    	ldr	x8, [x8]
100000624: f81c83a8    	stur	x8, [x29, #-0x38]
100000628: 39400009    	ldrb	w9, [x0]
10000062c: 7100bd3f    	cmp	w9, #0x2f
100000630: 54000081    	b.ne	0x100000640 <_func0+0x48>
100000634: 52800016    	mov	w22, #0x0               ; =0
100000638: d2800008    	mov	x8, #0x0                ; =0
10000063c: 1400000a    	b	0x100000664 <_func0+0x6c>
100000640: d2800008    	mov	x8, #0x0                ; =0
100000644: 910006aa    	add	x10, x21, #0x1
100000648: 9101cfeb    	add	x11, sp, #0x73
10000064c: 38286969    	strb	w9, [x11, x8]
100000650: 38686949    	ldrb	w9, [x10, x8]
100000654: 91000508    	add	x8, x8, #0x1
100000658: 7100bd3f    	cmp	w9, #0x2f
10000065c: 54ffff81    	b.ne	0x10000064c <_func0+0x54>
100000660: aa0803f6    	mov	x22, x8
100000664: 9101cfe9    	add	x9, sp, #0x73
100000668: 3828693f    	strb	wzr, [x9, x8]
10000066c: 9101cfe0    	add	x0, sp, #0x73
100000670: 940000d6    	bl	0x1000009c8 <_atoi+0x1000009c8>
100000674: aa0003f4    	mov	x20, x0
100000678: 8b36c2a8    	add	x8, x21, w22, sxtw
10000067c: 39400508    	ldrb	w8, [x8, #0x1]
100000680: 34000168    	cbz	w8, 0x1000006ac <_func0+0xb4>
100000684: d2800009    	mov	x9, #0x0                ; =0
100000688: 8b3642aa    	add	x10, x21, w22, uxtw
10000068c: 9100094a    	add	x10, x10, #0x2
100000690: 91003beb    	add	x11, sp, #0xe
100000694: 38296968    	strb	w8, [x11, x9]
100000698: 38696948    	ldrb	w8, [x10, x9]
10000069c: 91000529    	add	x9, x9, #0x1
1000006a0: 35ffffa8    	cbnz	w8, 0x100000694 <_func0+0x9c>
1000006a4: 2a0903e8    	mov	w8, w9
1000006a8: 14000002    	b	0x1000006b0 <_func0+0xb8>
1000006ac: d2800008    	mov	x8, #0x0                ; =0
1000006b0: 91003be9    	add	x9, sp, #0xe
1000006b4: 3828693f    	strb	wzr, [x9, x8]
1000006b8: 91003be0    	add	x0, sp, #0xe
1000006bc: 940000c3    	bl	0x1000009c8 <_atoi+0x1000009c8>
1000006c0: aa0003f5    	mov	x21, x0
1000006c4: 39400269    	ldrb	w9, [x19]
1000006c8: 7100bd3f    	cmp	w9, #0x2f
1000006cc: 54000081    	b.ne	0x1000006dc <_func0+0xe4>
1000006d0: 52800017    	mov	w23, #0x0               ; =0
1000006d4: d2800008    	mov	x8, #0x0                ; =0
1000006d8: 1400000a    	b	0x100000700 <_func0+0x108>
1000006dc: d2800008    	mov	x8, #0x0                ; =0
1000006e0: 9100066a    	add	x10, x19, #0x1
1000006e4: 9101cfeb    	add	x11, sp, #0x73
1000006e8: 38286969    	strb	w9, [x11, x8]
1000006ec: 38686949    	ldrb	w9, [x10, x8]
1000006f0: 91000508    	add	x8, x8, #0x1
1000006f4: 7100bd3f    	cmp	w9, #0x2f
1000006f8: 54ffff81    	b.ne	0x1000006e8 <_func0+0xf0>
1000006fc: aa0803f7    	mov	x23, x8
100000700: 9101cfe9    	add	x9, sp, #0x73
100000704: 3828693f    	strb	wzr, [x9, x8]
100000708: 9101cfe0    	add	x0, sp, #0x73
10000070c: 940000af    	bl	0x1000009c8 <_atoi+0x1000009c8>
100000710: aa0003f6    	mov	x22, x0
100000714: 8b37c268    	add	x8, x19, w23, sxtw
100000718: 39400508    	ldrb	w8, [x8, #0x1]
10000071c: 34000168    	cbz	w8, 0x100000748 <_func0+0x150>
100000720: d2800009    	mov	x9, #0x0                ; =0
100000724: 8b37426a    	add	x10, x19, w23, uxtw
100000728: 9100094a    	add	x10, x10, #0x2
10000072c: 91003beb    	add	x11, sp, #0xe
100000730: 38296968    	strb	w8, [x11, x9]
100000734: 38696948    	ldrb	w8, [x10, x9]
100000738: 91000529    	add	x9, x9, #0x1
10000073c: 35ffffa8    	cbnz	w8, 0x100000730 <_func0+0x138>
100000740: 2a0903e8    	mov	w8, w9
100000744: 14000002    	b	0x10000074c <_func0+0x154>
100000748: d2800008    	mov	x8, #0x0                ; =0
10000074c: 91003be9    	add	x9, sp, #0xe
100000750: 3828693f    	strb	wzr, [x9, x8]
100000754: 91003be0    	add	x0, sp, #0xe
100000758: 9400009c    	bl	0x1000009c8 <_atoi+0x1000009c8>
10000075c: 1b147ec8    	mul	w8, w22, w20
100000760: 1b157c09    	mul	w9, w0, w21
100000764: 1ac90d0a    	sdiv	w10, w8, w9
100000768: 1b09a148    	msub	w8, w10, w9, w8
10000076c: 7100011f    	cmp	w8, #0x0
100000770: 1a9f17e0    	cset	w0, eq
100000774: f85c83a8    	ldur	x8, [x29, #-0x38]
100000778: 90000029    	adrp	x9, 0x100004000 <_atoi+0x100004000>
10000077c: f9400929    	ldr	x9, [x9, #0x10]
100000780: f9400129    	ldr	x9, [x9]
100000784: eb08013f    	cmp	x9, x8
100000788: 540000e1    	b.ne	0x1000007a4 <_func0+0x1ac>
10000078c: a9517bfd    	ldp	x29, x30, [sp, #0x110]
100000790: a9504ff4    	ldp	x20, x19, [sp, #0x100]
100000794: a94f57f6    	ldp	x22, x21, [sp, #0xf0]
100000798: a94e5ff8    	ldp	x24, x23, [sp, #0xe0]
10000079c: 910483ff    	add	sp, sp, #0x120
1000007a0: d65f03c0    	ret
1000007a4: 94000086    	bl	0x1000009bc <_atoi+0x1000009bc>

