00000001000004e8 <_func0>:
1000004e8: a9bb6ffc    	stp	x28, x27, [sp, #-0x50]!
1000004ec: a9015ff8    	stp	x24, x23, [sp, #0x10]
1000004f0: a90257f6    	stp	x22, x21, [sp, #0x20]
1000004f4: a9034ff4    	stp	x20, x19, [sp, #0x30]
1000004f8: a9047bfd    	stp	x29, x30, [sp, #0x40]
1000004fc: 910103fd    	add	x29, sp, #0x40
100000500: d11043ff    	sub	sp, sp, #0x410
100000504: aa0003f4    	mov	x20, x0
100000508: 90000028    	adrp	x8, 0x100004000 <_bzero+0x100004000>
10000050c: f9401108    	ldr	x8, [x8, #0x20]
100000510: f9400108    	ldr	x8, [x8]
100000514: f81b83a8    	stur	x8, [x29, #-0x48]
100000518: 910023f5    	add	x21, sp, #0x8
10000051c: 910023e0    	add	x0, sp, #0x8
100000520: 52808001    	mov	w1, #0x400              ; =1024
100000524: 9400006b    	bl	0x1000006d0 <_bzero+0x1000006d0>
100000528: 39400280    	ldrb	w0, [x20]
10000052c: 34000360    	cbz	w0, 0x100000598 <_func0+0xb0>
100000530: 52800013    	mov	w19, #0x0               ; =0
100000534: 91000694    	add	x20, x20, #0x1
100000538: 90000036    	adrp	x22, 0x100004000 <_bzero+0x100004000>
10000053c: f94002d6    	ldr	x22, [x22]
100000540: 52800037    	mov	w23, #0x1               ; =1
100000544: 14000003    	b	0x100000550 <_func0+0x68>
100000548: 38401680    	ldrb	w0, [x20], #0x1
10000054c: 34000280    	cbz	w0, 0x10000059c <_func0+0xb4>
100000550: 9400005d    	bl	0x1000006c4 <_bzero+0x1000006c4>
100000554: 93401c18    	sxtb	x24, w0
100000558: b8787aa8    	ldr	w8, [x21, x24, lsl #2]
10000055c: 35ffff68    	cbnz	w8, 0x100000548 <_func0+0x60>
100000560: 12001c00    	and	w0, w0, #0xff
100000564: 7101fc1f    	cmp	w0, #0x7f
100000568: 540000c8    	b.hi	0x100000580 <_func0+0x98>
10000056c: 8b204ac8    	add	x8, x22, w0, uxtw #2
100000570: b9403d08    	ldr	w8, [x8, #0x3c]
100000574: 12180100    	and	w0, w8, #0x100
100000578: 350000a0    	cbnz	w0, 0x10000058c <_func0+0xa4>
10000057c: 17fffff3    	b	0x100000548 <_func0+0x60>
100000580: 52802001    	mov	w1, #0x100              ; =256
100000584: 9400004a    	bl	0x1000006ac <_bzero+0x1000006ac>
100000588: 34fffe00    	cbz	w0, 0x100000548 <_func0+0x60>
10000058c: b8387ab7    	str	w23, [x21, x24, lsl #2]
100000590: 11000673    	add	w19, w19, #0x1
100000594: 17ffffed    	b	0x100000548 <_func0+0x60>
100000598: 52800013    	mov	w19, #0x0               ; =0
10000059c: f85b83a8    	ldur	x8, [x29, #-0x48]
1000005a0: 90000029    	adrp	x9, 0x100004000 <_bzero+0x100004000>
1000005a4: f9401129    	ldr	x9, [x9, #0x20]
1000005a8: f9400129    	ldr	x9, [x9]
1000005ac: eb08013f    	cmp	x9, x8
1000005b0: 54000121    	b.ne	0x1000005d4 <_func0+0xec>
1000005b4: aa1303e0    	mov	x0, x19
1000005b8: 911043ff    	add	sp, sp, #0x410
1000005bc: a9447bfd    	ldp	x29, x30, [sp, #0x40]
1000005c0: a9434ff4    	ldp	x20, x19, [sp, #0x30]
1000005c4: a94257f6    	ldp	x22, x21, [sp, #0x20]
1000005c8: a9415ff8    	ldp	x24, x23, [sp, #0x10]
1000005cc: a8c56ffc    	ldp	x28, x27, [sp], #0x50
1000005d0: d65f03c0    	ret
1000005d4: 94000039    	bl	0x1000006b8 <_bzero+0x1000006b8>

