0000000100000858 <_func0>:
100000858: d101c3ff    	sub	sp, sp, #0x70
10000085c: a9016ffc    	stp	x28, x27, [sp, #0x10]
100000860: a90267fa    	stp	x26, x25, [sp, #0x20]
100000864: a9035ff8    	stp	x24, x23, [sp, #0x30]
100000868: a90457f6    	stp	x22, x21, [sp, #0x40]
10000086c: a9054ff4    	stp	x20, x19, [sp, #0x50]
100000870: a9067bfd    	stp	x29, x30, [sp, #0x60]
100000874: 910183fd    	add	x29, sp, #0x60
100000878: b900005f    	str	wzr, [x2]
10000087c: 7100003f    	cmp	w1, #0x0
100000880: 540008ed    	b.le	0x10000099c <_func0+0x144>
100000884: aa0203f4    	mov	x20, x2
100000888: aa0003f3    	mov	x19, x0
10000088c: d2800016    	mov	x22, #0x0               ; =0
100000890: 52800017    	mov	w23, #0x0               ; =0
100000894: d37d7c38    	ubfiz	x24, x1, #3, #32
100000898: 14000004    	b	0x1000008a8 <_func0+0x50>
10000089c: 910022d6    	add	x22, x22, #0x8
1000008a0: eb16031f    	cmp	x24, x22
1000008a4: 54000120    	b.eq	0x1000008c8 <_func0+0x70>
1000008a8: f8766a75    	ldr	x21, [x19, x22]
1000008ac: aa1503e0    	mov	x0, x21
1000008b0: 940000a7    	bl	0x100000b4c <_strlen+0x100000b4c>
1000008b4: 3707ff40    	tbnz	w0, #0x0, 0x10000089c <_func0+0x44>
1000008b8: f837da75    	str	x21, [x19, w23, sxtw #3]
1000008bc: 110006f7    	add	w23, w23, #0x1
1000008c0: b9000297    	str	w23, [x20]
1000008c4: 17fffff6    	b	0x10000089c <_func0+0x44>
1000008c8: 710006f8    	subs	w24, w23, #0x1
1000008cc: 540004cd    	b.le	0x100000964 <_func0+0x10c>
1000008d0: 52800019    	mov	w25, #0x0               ; =0
1000008d4: 91002268    	add	x8, x19, #0x8
1000008d8: f90007e8    	str	x8, [sp, #0x8]
1000008dc: aa1803e8    	mov	x8, x24
1000008e0: 14000005    	b	0x1000008f4 <_func0+0x9c>
1000008e4: 11000739    	add	w25, w25, #0x1
1000008e8: 51000768    	sub	w8, w27, #0x1
1000008ec: 6b18033f    	cmp	w25, w24
1000008f0: 540003a0    	b.eq	0x100000964 <_func0+0x10c>
1000008f4: 2a0803fb    	mov	w27, w8
1000008f8: 4b170328    	sub	w8, w25, w23
1000008fc: 3100091f    	cmn	w8, #0x2
100000900: 54ffff2c    	b.gt	0x1000008e4 <_func0+0x8c>
100000904: f9400274    	ldr	x20, [x19]
100000908: aa1b03fc    	mov	x28, x27
10000090c: f94007fa    	ldr	x26, [sp, #0x8]
100000910: 14000005    	b	0x100000924 <_func0+0xcc>
100000914: a93fd355    	stp	x21, x20, [x26, #-0x8]
100000918: 9100235a    	add	x26, x26, #0x8
10000091c: f100079c    	subs	x28, x28, #0x1
100000920: 54fffe20    	b.eq	0x1000008e4 <_func0+0x8c>
100000924: aa1403e0    	mov	x0, x20
100000928: 94000089    	bl	0x100000b4c <_strlen+0x100000b4c>
10000092c: aa0003f6    	mov	x22, x0
100000930: f9400355    	ldr	x21, [x26]
100000934: aa1503e0    	mov	x0, x21
100000938: 94000085    	bl	0x100000b4c <_strlen+0x100000b4c>
10000093c: eb0002df    	cmp	x22, x0
100000940: 54fffea8    	b.hi	0x100000914 <_func0+0xbc>
100000944: 540000c1    	b.ne	0x10000095c <_func0+0x104>
100000948: aa1403e0    	mov	x0, x20
10000094c: aa1503e1    	mov	x1, x21
100000950: 9400007c    	bl	0x100000b40 <_strlen+0x100000b40>
100000954: 7100041f    	cmp	w0, #0x1
100000958: 54fffdea    	b.ge	0x100000914 <_func0+0xbc>
10000095c: aa1503f4    	mov	x20, x21
100000960: 17ffffee    	b	0x100000918 <_func0+0xc0>
100000964: 937d7ee0    	sbfiz	x0, x23, #3, #32
100000968: 9400006d    	bl	0x100000b1c <_strlen+0x100000b1c>
10000096c: 710006ff    	cmp	w23, #0x1
100000970: 5400028b    	b.lt	0x1000009c0 <_func0+0x168>
100000974: d37d7ee2    	ubfiz	x2, x23, #3, #32
100000978: aa1303e1    	mov	x1, x19
10000097c: a9467bfd    	ldp	x29, x30, [sp, #0x60]
100000980: a9454ff4    	ldp	x20, x19, [sp, #0x50]
100000984: a94457f6    	ldp	x22, x21, [sp, #0x40]
100000988: a9435ff8    	ldp	x24, x23, [sp, #0x30]
10000098c: a94267fa    	ldp	x26, x25, [sp, #0x20]
100000990: a9416ffc    	ldp	x28, x27, [sp, #0x10]
100000994: 9101c3ff    	add	sp, sp, #0x70
100000998: 14000064    	b	0x100000b28 <_strlen+0x100000b28>
10000099c: d2800000    	mov	x0, #0x0                ; =0
1000009a0: a9467bfd    	ldp	x29, x30, [sp, #0x60]
1000009a4: a9454ff4    	ldp	x20, x19, [sp, #0x50]
1000009a8: a94457f6    	ldp	x22, x21, [sp, #0x40]
1000009ac: a9435ff8    	ldp	x24, x23, [sp, #0x30]
1000009b0: a94267fa    	ldp	x26, x25, [sp, #0x20]
1000009b4: a9416ffc    	ldp	x28, x27, [sp, #0x10]
1000009b8: 9101c3ff    	add	sp, sp, #0x70
1000009bc: 14000058    	b	0x100000b1c <_strlen+0x100000b1c>
1000009c0: a9467bfd    	ldp	x29, x30, [sp, #0x60]
1000009c4: a9454ff4    	ldp	x20, x19, [sp, #0x50]
1000009c8: a94457f6    	ldp	x22, x21, [sp, #0x40]
1000009cc: a9435ff8    	ldp	x24, x23, [sp, #0x30]
1000009d0: a94267fa    	ldp	x26, x25, [sp, #0x20]
1000009d4: a9416ffc    	ldp	x28, x27, [sp, #0x10]
1000009d8: 9101c3ff    	add	sp, sp, #0x70
1000009dc: d65f03c0    	ret

