0000000100000618 <_func0>:
100000618: a9bb67fa    	stp	x26, x25, [sp, #-0x50]!
10000061c: a9015ff8    	stp	x24, x23, [sp, #0x10]
100000620: a90257f6    	stp	x22, x21, [sp, #0x20]
100000624: a9034ff4    	stp	x20, x19, [sp, #0x30]
100000628: a9047bfd    	stp	x29, x30, [sp, #0x40]
10000062c: 910103fd    	add	x29, sp, #0x40
100000630: aa0303f7    	mov	x23, x3
100000634: aa0203f6    	mov	x22, x2
100000638: aa0103f8    	mov	x24, x1
10000063c: aa0003f3    	mov	x19, x0
100000640: aa0303e8    	mov	x8, x3
100000644: 937e7d15    	sbfiz	x21, x8, #2, #32
100000648: aa1503e0    	mov	x0, x21
10000064c: 94000100    	bl	0x100000a4c <_pow+0x100000a4c>
100000650: aa0003f4    	mov	x20, x0
100000654: aa1503e0    	mov	x0, x21
100000658: 940000fd    	bl	0x100000a4c <_pow+0x100000a4c>
10000065c: aa0003f5    	mov	x21, x0
100000660: 710006ff    	cmp	w23, #0x1
100000664: 540006ab    	b.lt	0x100000738 <_func0+0x120>
100000668: d37e7ee2    	ubfiz	x2, x23, #2, #32
10000066c: 2a1703f9    	mov	w25, w23
100000670: aa1403e0    	mov	x0, x20
100000674: aa1803e1    	mov	x1, x24
100000678: 940000f8    	bl	0x100000a58 <_pow+0x100000a58>
10000067c: 710012ff    	cmp	w23, #0x4
100000680: 54000062    	b.hs	0x10000068c <_func0+0x74>
100000684: d2800008    	mov	x8, #0x0                ; =0
100000688: 14000028    	b	0x100000728 <_func0+0x110>
10000068c: 90000009    	adrp	x9, 0x100000000 <_pow+0x100000000>
100000690: 710042ff    	cmp	w23, #0x10
100000694: 54000062    	b.hs	0x1000006a0 <_func0+0x88>
100000698: d2800008    	mov	x8, #0x0                ; =0
10000069c: 14000015    	b	0x1000006f0 <_func0+0xd8>
1000006a0: 927c6b28    	and	x8, x25, #0x7ffffff0
1000006a4: 3dc2cd20    	ldr	q0, [x9, #0xb30]
1000006a8: 910082aa    	add	x10, x21, #0x20
1000006ac: 4f000481    	movi.4s	v1, #0x4
1000006b0: 4f000502    	movi.4s	v2, #0x8
1000006b4: 4f000583    	movi.4s	v3, #0xc
1000006b8: 4f000604    	movi.4s	v4, #0x10
1000006bc: aa0803eb    	mov	x11, x8
1000006c0: 4ea18405    	add.4s	v5, v0, v1
1000006c4: 4ea28406    	add.4s	v6, v0, v2
1000006c8: 4ea38407    	add.4s	v7, v0, v3
1000006cc: ad3f1540    	stp	q0, q5, [x10, #-0x20]
1000006d0: ac821d46    	stp	q6, q7, [x10], #0x40
1000006d4: 4ea48400    	add.4s	v0, v0, v4
1000006d8: f100416b    	subs	x11, x11, #0x10
1000006dc: 54ffff21    	b.ne	0x1000006c0 <_func0+0xa8>
1000006e0: eb19011f    	cmp	x8, x25
1000006e4: 540002a0    	b.eq	0x100000738 <_func0+0x120>
1000006e8: f27e073f    	tst	x25, #0xc
1000006ec: 540001e0    	b.eq	0x100000728 <_func0+0x110>
1000006f0: aa0803ea    	mov	x10, x8
1000006f4: 4e040d40    	dup.4s	v0, w10
1000006f8: 927e7328    	and	x8, x25, #0x7ffffffc
1000006fc: 3dc2cd21    	ldr	q1, [x9, #0xb30]
100000700: 4ea11c00    	orr.16b	v0, v0, v1
100000704: 8b0a0aa9    	add	x9, x21, x10, lsl #2
100000708: cb08014a    	sub	x10, x10, x8
10000070c: 4f000481    	movi.4s	v1, #0x4
100000710: 3c810520    	str	q0, [x9], #0x10
100000714: 4ea18400    	add.4s	v0, v0, v1
100000718: b100114a    	adds	x10, x10, #0x4
10000071c: 54ffffa1    	b.ne	0x100000710 <_func0+0xf8>
100000720: eb19011f    	cmp	x8, x25
100000724: 540000a0    	b.eq	0x100000738 <_func0+0x120>
100000728: b8287aa8    	str	w8, [x21, x8, lsl #2]
10000072c: 91000508    	add	x8, x8, #0x1
100000730: eb08033f    	cmp	x25, x8
100000734: 54ffffa1    	b.ne	0x100000728 <_func0+0x110>
100000738: 710006df    	cmp	w22, #0x1
10000073c: 5400122b    	b.lt	0x100000980 <_func0+0x368>
100000740: d2800017    	mov	x23, #0x0               ; =0
100000744: 2a1603f6    	mov	w22, w22
100000748: 1400000e    	b	0x100000780 <_func0+0x168>
10000074c: bc79da80    	ldr	s0, [x20, w25, sxtw #2]
100000750: 0f20a400    	sshll.2d	v0, v0, #0x0
100000754: 5e61d800    	scvtf	d0, d0
100000758: bc687a81    	ldr	s1, [x20, x8, lsl #2]
10000075c: 0f20a421    	sshll.2d	v1, v1, #0x0
100000760: 5e61d821    	scvtf	d1, d1
100000764: 940000c0    	bl	0x100000a64 <_pow+0x100000a64>
100000768: 1e780008    	fcvtzs	w8, d0
10000076c: b839da88    	str	w8, [x20, w25, sxtw #2]
100000770: b9000719    	str	w25, [x24, #0x4]
100000774: 910006f7    	add	x23, x23, #0x1
100000778: eb1602ff    	cmp	x23, x22
10000077c: 54000400    	b.eq	0x1000007fc <_func0+0x1e4>
100000780: f8777a68    	ldr	x8, [x19, x23, lsl #3]
100000784: 39400109    	ldrb	w9, [x8]
100000788: 7100a93f    	cmp	w9, #0x2a
10000078c: 54ffff41    	b.ne	0x100000774 <_func0+0x15c>
100000790: 39400509    	ldrb	w9, [x8, #0x1]
100000794: 7100a93f    	cmp	w9, #0x2a
100000798: 54fffee1    	b.ne	0x100000774 <_func0+0x15c>
10000079c: 39400908    	ldrb	w8, [x8, #0x2]
1000007a0: 35fffea8    	cbnz	w8, 0x100000774 <_func0+0x15c>
1000007a4: 8b170ab8    	add	x24, x21, x23, lsl #2
1000007a8: b9800319    	ldrsw	x25, [x24]
1000007ac: b8797aa8    	ldr	w8, [x21, x25, lsl #2]
1000007b0: 6b19011f    	cmp	w8, w25
1000007b4: 540000e0    	b.eq	0x1000007d0 <_func0+0x1b8>
1000007b8: b9000308    	str	w8, [x24]
1000007bc: b868daa9    	ldr	w9, [x21, w8, sxtw #2]
1000007c0: aa0803f9    	mov	x25, x8
1000007c4: 6b08013f    	cmp	w9, w8
1000007c8: aa0903e8    	mov	x8, x9
1000007cc: 54ffff61    	b.ne	0x1000007b8 <_func0+0x1a0>
1000007d0: b9800708    	ldrsw	x8, [x24, #0x4]
1000007d4: b8687aa9    	ldr	w9, [x21, x8, lsl #2]
1000007d8: 6b08013f    	cmp	w9, w8
1000007dc: 54fffb80    	b.eq	0x10000074c <_func0+0x134>
1000007e0: aa0903e8    	mov	x8, x9
1000007e4: b9000709    	str	w9, [x24, #0x4]
1000007e8: b869daa9    	ldr	w9, [x21, w9, sxtw #2]
1000007ec: 6b08013f    	cmp	w9, w8
1000007f0: 54ffff81    	b.ne	0x1000007e0 <_func0+0x1c8>
1000007f4: 93407d08    	sxtw	x8, w8
1000007f8: 17ffffd5    	b	0x10000074c <_func0+0x134>
1000007fc: d2800008    	mov	x8, #0x0                ; =0
100000800: 1400000d    	b	0x100000834 <_func0+0x21c>
100000804: b86c7a8c    	ldr	w12, [x20, x12, lsl #2]
100000808: aa0b03ed    	mov	x13, x11
10000080c: b86bda8e    	ldr	w14, [x20, w11, sxtw #2]
100000810: 1acc0dcf    	sdiv	w15, w14, w12
100000814: 1b0c7dcc    	mul	w12, w14, w12
100000818: 7100013f    	cmp	w9, #0x0
10000081c: 1a8c01e9    	csel	w9, w15, w12, eq
100000820: b82dda89    	str	w9, [x20, w13, sxtw #2]
100000824: b900054b    	str	w11, [x10, #0x4]
100000828: 91000508    	add	x8, x8, #0x1
10000082c: eb16011f    	cmp	x8, x22
100000830: 540004c0    	b.eq	0x1000008c8 <_func0+0x2b0>
100000834: f8687a69    	ldr	x9, [x19, x8, lsl #3]
100000838: 3940012a    	ldrb	w10, [x9]
10000083c: 7100bd5f    	cmp	w10, #0x2f
100000840: 540000e0    	b.eq	0x10000085c <_func0+0x244>
100000844: 7100a95f    	cmp	w10, #0x2a
100000848: 54ffff01    	b.ne	0x100000828 <_func0+0x210>
10000084c: 39400529    	ldrb	w9, [x9, #0x1]
100000850: 35fffec9    	cbnz	w9, 0x100000828 <_func0+0x210>
100000854: 52800029    	mov	w9, #0x1                ; =1
100000858: 14000006    	b	0x100000870 <_func0+0x258>
10000085c: 3940052a    	ldrb	w10, [x9, #0x1]
100000860: 7100bd5f    	cmp	w10, #0x2f
100000864: 54fffe21    	b.ne	0x100000828 <_func0+0x210>
100000868: 39400929    	ldrb	w9, [x9, #0x2]
10000086c: 35fffde9    	cbnz	w9, 0x100000828 <_func0+0x210>
100000870: 8b080aaa    	add	x10, x21, x8, lsl #2
100000874: b980014b    	ldrsw	x11, [x10]
100000878: b86b7aac    	ldr	w12, [x21, x11, lsl #2]
10000087c: 6b0b019f    	cmp	w12, w11
100000880: 540000e0    	b.eq	0x10000089c <_func0+0x284>
100000884: b900014c    	str	w12, [x10]
100000888: b86cdaad    	ldr	w13, [x21, w12, sxtw #2]
10000088c: aa0c03eb    	mov	x11, x12
100000890: 6b0c01bf    	cmp	w13, w12
100000894: aa0d03ec    	mov	x12, x13
100000898: 54ffff61    	b.ne	0x100000884 <_func0+0x26c>
10000089c: b980054c    	ldrsw	x12, [x10, #0x4]
1000008a0: b86c7aad    	ldr	w13, [x21, x12, lsl #2]
1000008a4: 6b0c01bf    	cmp	w13, w12
1000008a8: 54fffae0    	b.eq	0x100000804 <_func0+0x1ec>
1000008ac: aa0d03ec    	mov	x12, x13
1000008b0: b900054d    	str	w13, [x10, #0x4]
1000008b4: b86ddaad    	ldr	w13, [x21, w13, sxtw #2]
1000008b8: 6b0c01bf    	cmp	w13, w12
1000008bc: 54ffff81    	b.ne	0x1000008ac <_func0+0x294>
1000008c0: 93407d8c    	sxtw	x12, w12
1000008c4: 17ffffd0    	b	0x100000804 <_func0+0x1ec>
1000008c8: d2800008    	mov	x8, #0x0                ; =0
1000008cc: 1400000b    	b	0x1000008f8 <_func0+0x2e0>
1000008d0: b86c7a8c    	ldr	w12, [x20, x12, lsl #2]
1000008d4: b86bda8d    	ldr	w13, [x20, w11, sxtw #2]
1000008d8: 7100013f    	cmp	w9, #0x0
1000008dc: 5a8c1589    	cneg	w9, w12, eq
1000008e0: 0b0901a9    	add	w9, w13, w9
1000008e4: b82bda89    	str	w9, [x20, w11, sxtw #2]
1000008e8: b900054b    	str	w11, [x10, #0x4]
1000008ec: 91000508    	add	x8, x8, #0x1
1000008f0: eb16011f    	cmp	x8, x22
1000008f4: 54000460    	b.eq	0x100000980 <_func0+0x368>
1000008f8: f8687a69    	ldr	x9, [x19, x8, lsl #3]
1000008fc: 3940012a    	ldrb	w10, [x9]
100000900: 7100b55f    	cmp	w10, #0x2d
100000904: 540000e0    	b.eq	0x100000920 <_func0+0x308>
100000908: 7100ad5f    	cmp	w10, #0x2b
10000090c: 54ffff01    	b.ne	0x1000008ec <_func0+0x2d4>
100000910: 39400529    	ldrb	w9, [x9, #0x1]
100000914: 35fffec9    	cbnz	w9, 0x1000008ec <_func0+0x2d4>
100000918: 52800029    	mov	w9, #0x1                ; =1
10000091c: 14000003    	b	0x100000928 <_func0+0x310>
100000920: 39400529    	ldrb	w9, [x9, #0x1]
100000924: 35fffe49    	cbnz	w9, 0x1000008ec <_func0+0x2d4>
100000928: 8b080aaa    	add	x10, x21, x8, lsl #2
10000092c: b980014b    	ldrsw	x11, [x10]
100000930: b86b7aac    	ldr	w12, [x21, x11, lsl #2]
100000934: 6b0b019f    	cmp	w12, w11
100000938: 540000e0    	b.eq	0x100000954 <_func0+0x33c>
10000093c: b900014c    	str	w12, [x10]
100000940: b86cdaad    	ldr	w13, [x21, w12, sxtw #2]
100000944: aa0c03eb    	mov	x11, x12
100000948: 6b0c01bf    	cmp	w13, w12
10000094c: aa0d03ec    	mov	x12, x13
100000950: 54ffff61    	b.ne	0x10000093c <_func0+0x324>
100000954: b980054c    	ldrsw	x12, [x10, #0x4]
100000958: b86c7aad    	ldr	w13, [x21, x12, lsl #2]
10000095c: 6b0c01bf    	cmp	w13, w12
100000960: 54fffb80    	b.eq	0x1000008d0 <_func0+0x2b8>
100000964: aa0d03ec    	mov	x12, x13
100000968: b900054d    	str	w13, [x10, #0x4]
10000096c: b86ddaad    	ldr	w13, [x21, w13, sxtw #2]
100000970: 6b0c01bf    	cmp	w13, w12
100000974: 54ffff81    	b.ne	0x100000964 <_func0+0x34c>
100000978: 93407d8c    	sxtw	x12, w12
10000097c: 17ffffd5    	b	0x1000008d0 <_func0+0x2b8>
100000980: b9400293    	ldr	w19, [x20]
100000984: aa1403e0    	mov	x0, x20
100000988: 9400002e    	bl	0x100000a40 <_pow+0x100000a40>
10000098c: aa1503e0    	mov	x0, x21
100000990: 9400002c    	bl	0x100000a40 <_pow+0x100000a40>
100000994: aa1303e0    	mov	x0, x19
100000998: a9447bfd    	ldp	x29, x30, [sp, #0x40]
10000099c: a9434ff4    	ldp	x20, x19, [sp, #0x30]
1000009a0: a94257f6    	ldp	x22, x21, [sp, #0x20]
1000009a4: a9415ff8    	ldp	x24, x23, [sp, #0x10]
1000009a8: a8c567fa    	ldp	x26, x25, [sp], #0x50
1000009ac: d65f03c0    	ret

