00000001000005ec <_func0>:
1000005ec: a9bb67fa    	stp	x26, x25, [sp, #-0x50]!
1000005f0: a9015ff8    	stp	x24, x23, [sp, #0x10]
1000005f4: a90257f6    	stp	x22, x21, [sp, #0x20]
1000005f8: a9034ff4    	stp	x20, x19, [sp, #0x30]
1000005fc: a9047bfd    	stp	x29, x30, [sp, #0x40]
100000600: 910103fd    	add	x29, sp, #0x40
100000604: aa0103f3    	mov	x19, x1
100000608: 39400014    	ldrb	w20, [x0]
10000060c: 340005b4    	cbz	w20, 0x1000006c0 <_func0+0xd4>
100000610: d2800017    	mov	x23, #0x0               ; =0
100000614: 91000416    	add	x22, x0, #0x1
100000618: 90000038    	adrp	x24, 0x100004000 <___toupper+0x100004000>
10000061c: f9400318    	ldr	x24, [x24]
100000620: 52800039    	mov	w25, #0x1               ; =1
100000624: b20c83fa    	mov	x26, #0x10001000100010  ; =4503668347895824
100000628: f288223a    	movk	x26, #0x4111
10000062c: f2c8223a    	movk	x26, #0x4111, lsl #32
100000630: 14000015    	b	0x100000684 <_func0+0x98>
100000634: aa1503e0    	mov	x0, x21
100000638: 52820001    	mov	w1, #0x1000             ; =4096
10000063c: 9400005e    	bl	0x1000007b4 <___toupper+0x1000007b4>
100000640: 34000320    	cbz	w0, 0x1000006a4 <_func0+0xb8>
100000644: aa1503e0    	mov	x0, x21
100000648: 94000064    	bl	0x1000007d8 <___toupper+0x1000007d8>
10000064c: aa0003f4    	mov	x20, x0
100000650: 12001e88    	and	w8, w20, #0xff
100000654: 51010508    	sub	w8, w8, #0x41
100000658: 9ac82329    	lsl	x9, x25, x8
10000065c: ea1a013f    	tst	x9, x26
100000660: 11000a89    	add	w9, w20, #0x2
100000664: 1a941129    	csel	w9, w9, w20, ne
100000668: 7100d11f    	cmp	w8, #0x34
10000066c: 1a898288    	csel	w8, w20, w9, hi
100000670: 38376a68    	strb	w8, [x19, x23]
100000674: 910006e8    	add	x8, x23, #0x1
100000678: 38776ad4    	ldrb	w20, [x22, x23]
10000067c: aa0803f7    	mov	x23, x8
100000680: 34000234    	cbz	w20, 0x1000006c4 <_func0+0xd8>
100000684: 13001e95    	sxtb	w21, w20
100000688: 373ffd74    	tbnz	w20, #0x7, 0x100000634 <_func0+0x48>
10000068c: 8b354b08    	add	x8, x24, w21, uxtw #2
100000690: b9403d08    	ldr	w8, [x8, #0x3c]
100000694: 3767fd88    	tbnz	w8, #0xc, 0x100000644 <_func0+0x58>
100000698: 12110100    	and	w0, w8, #0x8000
10000069c: 350000c0    	cbnz	w0, 0x1000006b4 <_func0+0xc8>
1000006a0: 17ffffec    	b	0x100000650 <_func0+0x64>
1000006a4: aa1503e0    	mov	x0, x21
1000006a8: 52900001    	mov	w1, #0x8000             ; =32768
1000006ac: 94000042    	bl	0x1000007b4 <___toupper+0x1000007b4>
1000006b0: 34fffd00    	cbz	w0, 0x100000650 <_func0+0x64>
1000006b4: aa1503e0    	mov	x0, x21
1000006b8: 94000045    	bl	0x1000007cc <___toupper+0x1000007cc>
1000006bc: 17ffffe4    	b	0x10000064c <_func0+0x60>
1000006c0: d2800008    	mov	x8, #0x0                ; =0
1000006c4: 38286a7f    	strb	wzr, [x19, x8]
1000006c8: a9447bfd    	ldp	x29, x30, [sp, #0x40]
1000006cc: a9434ff4    	ldp	x20, x19, [sp, #0x30]
1000006d0: a94257f6    	ldp	x22, x21, [sp, #0x20]
1000006d4: a9415ff8    	ldp	x24, x23, [sp, #0x10]
1000006d8: a8c567fa    	ldp	x26, x25, [sp], #0x50
1000006dc: d65f03c0    	ret

