0000000100000768 <_func0>:
100000768: a9bc5ff8    	stp	x24, x23, [sp, #-0x40]!
10000076c: a90157f6    	stp	x22, x21, [sp, #0x10]
100000770: a9024ff4    	stp	x20, x19, [sp, #0x20]
100000774: a9037bfd    	stp	x29, x30, [sp, #0x30]
100000778: 9100c3fd    	add	x29, sp, #0x30
10000077c: aa0303f3    	mov	x19, x3
100000780: aa0203f4    	mov	x20, x2
100000784: aa0103f6    	mov	x22, x1
100000788: aa0003f7    	mov	x23, x0
10000078c: 940000aa    	bl	0x100000a34 <_strlen+0x100000a34>
100000790: 11000408    	add	w8, w0, #0x1
100000794: 93407d00    	sxtw	x0, w8
100000798: 940000a1    	bl	0x100000a1c <_strlen+0x100000a1c>
10000079c: aa0003f5    	mov	x21, x0
1000007a0: 394002eb    	ldrb	w11, [x23]
1000007a4: 3400028b    	cbz	w11, 0x1000007f4 <_func0+0x8c>
1000007a8: d2800009    	mov	x9, #0x0                ; =0
1000007ac: 52800008    	mov	w8, #0x0                ; =0
1000007b0: 384016ca    	ldrb	w10, [x22], #0x1
1000007b4: 14000006    	b	0x1000007cc <_func0+0x64>
1000007b8: 3828caab    	strb	w11, [x21, w8, sxtw]
1000007bc: 11000508    	add	w8, w8, #0x1
1000007c0: 91000529    	add	x9, x9, #0x1
1000007c4: 38696aeb    	ldrb	w11, [x23, x9]
1000007c8: 3400012b    	cbz	w11, 0x1000007ec <_func0+0x84>
1000007cc: aa1603ec    	mov	x12, x22
1000007d0: aa0a03ed    	mov	x13, x10
1000007d4: 34ffff2a    	cbz	w10, 0x1000007b8 <_func0+0x50>
1000007d8: 6b0d017f    	cmp	w11, w13
1000007dc: 54ffff20    	b.eq	0x1000007c0 <_func0+0x58>
1000007e0: 3840158d    	ldrb	w13, [x12], #0x1
1000007e4: 35ffffad    	cbnz	w13, 0x1000007d8 <_func0+0x70>
1000007e8: 17fffff4    	b	0x1000007b8 <_func0+0x50>
1000007ec: 93407d08    	sxtw	x8, w8
1000007f0: 14000002    	b	0x1000007f8 <_func0+0x90>
1000007f4: d2800008    	mov	x8, #0x0                ; =0
1000007f8: 38286abf    	strb	wzr, [x21, x8]
1000007fc: aa1503e0    	mov	x0, x21
100000800: 9400008d    	bl	0x100000a34 <_strlen+0x100000a34>
100000804: 7100081f    	cmp	w0, #0x2
100000808: 5400024b    	b.lt	0x100000850 <_func0+0xe8>
10000080c: d3417808    	ubfx	x8, x0, #1, #30
100000810: b2607fe9    	mov	x9, #-0x100000000       ; =-4294967296
100000814: 8b00812b    	add	x11, x9, x0, lsl #32
100000818: 9000000a    	adrp	x10, 0x100000000 <_strlen+0x100000000>
10000081c: 9129354a    	add	x10, x10, #0xa4d
100000820: aa1503ec    	mov	x12, x21
100000824: 90000016    	adrp	x22, 0x100000000 <_strlen+0x100000000>
100000828: 912c06d6    	add	x22, x22, #0xb01
10000082c: 3840158d    	ldrb	w13, [x12], #0x1
100000830: 9360fd6e    	asr	x14, x11, #32
100000834: 386e6aae    	ldrb	w14, [x21, x14]
100000838: 6b0e01bf    	cmp	w13, w14
10000083c: 54000101    	b.ne	0x10000085c <_func0+0xf4>
100000840: 8b09016b    	add	x11, x11, x9
100000844: f1000508    	subs	x8, x8, #0x1
100000848: 54ffff21    	b.ne	0x10000082c <_func0+0xc4>
10000084c: 14000005    	b	0x100000860 <_func0+0xf8>
100000850: 90000016    	adrp	x22, 0x100000000 <_strlen+0x100000000>
100000854: 912c06d6    	add	x22, x22, #0xb01
100000858: 14000002    	b	0x100000860 <_func0+0xf8>
10000085c: aa0a03f6    	mov	x22, x10
100000860: aa1403e0    	mov	x0, x20
100000864: aa1503e1    	mov	x1, x21
100000868: 94000070    	bl	0x100000a28 <_strlen+0x100000a28>
10000086c: aa1303e0    	mov	x0, x19
100000870: aa1603e1    	mov	x1, x22
100000874: 9400006d    	bl	0x100000a28 <_strlen+0x100000a28>
100000878: aa1503e0    	mov	x0, x21
10000087c: a9437bfd    	ldp	x29, x30, [sp, #0x30]
100000880: a9424ff4    	ldp	x20, x19, [sp, #0x20]
100000884: a94157f6    	ldp	x22, x21, [sp, #0x10]
100000888: a8c45ff8    	ldp	x24, x23, [sp], #0x40
10000088c: 14000061    	b	0x100000a10 <_strlen+0x100000a10>

