00000001000006b0 <_func0>:
1000006b0: d101c3ff    	sub	sp, sp, #0x70
1000006b4: a9016ffc    	stp	x28, x27, [sp, #0x10]
1000006b8: a90267fa    	stp	x26, x25, [sp, #0x20]
1000006bc: a9035ff8    	stp	x24, x23, [sp, #0x30]
1000006c0: a90457f6    	stp	x22, x21, [sp, #0x40]
1000006c4: a9054ff4    	stp	x20, x19, [sp, #0x50]
1000006c8: a9067bfd    	stp	x29, x30, [sp, #0x60]
1000006cc: 910183fd    	add	x29, sp, #0x60
1000006d0: f90003e1    	str	x1, [sp]
1000006d4: aa0003f5    	mov	x21, x0
1000006d8: 39003bff    	strb	wzr, [sp, #0xe]
1000006dc: 79001bff    	strh	wzr, [sp, #0xc]
1000006e0: 940000a7    	bl	0x10000097c <_strlen+0x10000097c>
1000006e4: aa0003f6    	mov	x22, x0
1000006e8: 11000ac8    	add	w8, w22, #0x2
1000006ec: 93407d00    	sxtw	x0, w8
1000006f0: 9400009a    	bl	0x100000958 <_strlen+0x100000958>
1000006f4: aa0003fa    	mov	x26, x0
1000006f8: aa1503e1    	mov	x1, x21
1000006fc: 9400009d    	bl	0x100000970 <_strlen+0x100000970>
100000700: 9400009f    	bl	0x10000097c <_strlen+0x10000097c>
100000704: 52800408    	mov	w8, #0x20               ; =32
100000708: 78206b48    	strh	w8, [x26, x0]
10000070c: 321f77e8    	mov	w8, #0x7ffffffe         ; =2147483646
100000710: 6b0802df    	cmp	w22, w8
100000714: 54000948    	b.hi	0x10000083c <_func0+0x18c>
100000718: d2800015    	mov	x21, #0x0               ; =0
10000071c: 52800017    	mov	w23, #0x0               ; =0
100000720: 5280001c    	mov	w28, #0x0               ; =0
100000724: 110006d6    	add	w22, w22, #0x1
100000728: 52800098    	mov	w24, #0x4               ; =4
10000072c: 528f8df9    	mov	w25, #0x7c6f            ; =31855
100000730: 528f85db    	mov	w27, #0x7c2e            ; =31790
100000734: aa1a03f4    	mov	x20, x26
100000738: 14000007    	b	0x100000754 <_func0+0xa4>
10000073c: 52800028    	mov	w8, #0x1                ; =1
100000740: b837daa8    	str	w8, [x21, w23, sxtw #2]
100000744: 110006f7    	add	w23, w23, #0x1
100000748: 390033ff    	strb	wzr, [sp, #0xc]
10000074c: f10006d6    	subs	x22, x22, #0x1
100000750: 540007a0    	b.eq	0x100000844 <_func0+0x194>
100000754: 38401693    	ldrb	w19, [x20], #0x1
100000758: 7100827f    	cmp	w19, #0x20
10000075c: 540005e1    	b.ne	0x100000818 <_func0+0x168>
100000760: 79401be8    	ldrh	w8, [sp, #0xc]
100000764: 7101bd1f    	cmp	w8, #0x6f
100000768: 54000181    	b.ne	0x100000798 <_func0+0xe8>
10000076c: 6b1c02ff    	cmp	w23, w28
100000770: 54000101    	b.ne	0x100000790 <_func0+0xe0>
100000774: 531f7ae8    	lsl	w8, w23, #1
100000778: 710002ff    	cmp	w23, #0x0
10000077c: 1a98c11c    	csel	w28, w8, w24, gt
100000780: 937e7f81    	sbfiz	x1, x28, #2, #32
100000784: aa1503e0    	mov	x0, x21
100000788: 94000077    	bl	0x100000964 <_strlen+0x100000964>
10000078c: aa0003f5    	mov	x21, x0
100000790: b837dab8    	str	w24, [x21, w23, sxtw #2]
100000794: 110006f7    	add	w23, w23, #0x1
100000798: 79401be8    	ldrh	w8, [sp, #0xc]
10000079c: 4a190108    	eor	w8, w8, w25
1000007a0: 39403be9    	ldrb	w9, [sp, #0xe]
1000007a4: 2a090108    	orr	w8, w8, w9
1000007a8: 350001a8    	cbnz	w8, 0x1000007dc <_func0+0x12c>
1000007ac: 6b1c02ff    	cmp	w23, w28
1000007b0: 54000101    	b.ne	0x1000007d0 <_func0+0x120>
1000007b4: 531f7b88    	lsl	w8, w28, #1
1000007b8: 7100039f    	cmp	w28, #0x0
1000007bc: 1a98c11c    	csel	w28, w8, w24, gt
1000007c0: 937e7f81    	sbfiz	x1, x28, #2, #32
1000007c4: aa1503e0    	mov	x0, x21
1000007c8: 94000067    	bl	0x100000964 <_strlen+0x100000964>
1000007cc: aa0003f5    	mov	x21, x0
1000007d0: 52800048    	mov	w8, #0x2                ; =2
1000007d4: b837daa8    	str	w8, [x21, w23, sxtw #2]
1000007d8: 110006f7    	add	w23, w23, #0x1
1000007dc: 79401be8    	ldrh	w8, [sp, #0xc]
1000007e0: 4a1b0108    	eor	w8, w8, w27
1000007e4: 39403be9    	ldrb	w9, [sp, #0xe]
1000007e8: 2a090108    	orr	w8, w8, w9
1000007ec: 35fffae8    	cbnz	w8, 0x100000748 <_func0+0x98>
1000007f0: 6b1c02ff    	cmp	w23, w28
1000007f4: 54fffa41    	b.ne	0x10000073c <_func0+0x8c>
1000007f8: 531f7b88    	lsl	w8, w28, #1
1000007fc: 7100039f    	cmp	w28, #0x0
100000800: 1a98c11c    	csel	w28, w8, w24, gt
100000804: 937e7f81    	sbfiz	x1, x28, #2, #32
100000808: aa1503e0    	mov	x0, x21
10000080c: 94000056    	bl	0x100000964 <_strlen+0x100000964>
100000810: aa0003f5    	mov	x21, x0
100000814: 17ffffca    	b	0x10000073c <_func0+0x8c>
100000818: 910033e0    	add	x0, sp, #0xc
10000081c: 94000058    	bl	0x10000097c <_strlen+0x10000097c>
100000820: f100041f    	cmp	x0, #0x1
100000824: 54fff948    	b.hi	0x10000074c <_func0+0x9c>
100000828: 910033e8    	add	x8, sp, #0xc
10000082c: 8b000108    	add	x8, x8, x0
100000830: 39000113    	strb	w19, [x8]
100000834: 3900051f    	strb	wzr, [x8, #0x1]
100000838: 17ffffc5    	b	0x10000074c <_func0+0x9c>
10000083c: 52800017    	mov	w23, #0x0               ; =0
100000840: d2800015    	mov	x21, #0x0               ; =0
100000844: aa1a03e0    	mov	x0, x26
100000848: 94000041    	bl	0x10000094c <_strlen+0x10000094c>
10000084c: f94003e8    	ldr	x8, [sp]
100000850: b9000117    	str	w23, [x8]
100000854: aa1503e0    	mov	x0, x21
100000858: a9467bfd    	ldp	x29, x30, [sp, #0x60]
10000085c: a9454ff4    	ldp	x20, x19, [sp, #0x50]
100000860: a94457f6    	ldp	x22, x21, [sp, #0x40]
100000864: a9435ff8    	ldp	x24, x23, [sp, #0x30]
100000868: a94267fa    	ldp	x26, x25, [sp, #0x20]
10000086c: a9416ffc    	ldp	x28, x27, [sp, #0x10]
100000870: 9101c3ff    	add	sp, sp, #0x70
100000874: d65f03c0    	ret

